
Slide_Main.elf:     file format elf32-avr

Sections:
Idx Name          Size      VMA       LMA       File off  Algn
  0 .data         00000286  00800200  000014d8  0000156c  2**0
                  CONTENTS, ALLOC, LOAD, DATA
  1 .text         000014d8  00000000  00000000  00000094  2**1
                  CONTENTS, ALLOC, LOAD, READONLY, CODE
  2 .bss          00000105  00800486  00800486  000017f2  2**0
                  ALLOC
  3 .comment      00000030  00000000  00000000  000017f2  2**0
                  CONTENTS, READONLY
  4 .note.gnu.avr.deviceinfo 00000040  00000000  00000000  00001824  2**2
                  CONTENTS, READONLY
  5 .debug_aranges 00000180  00000000  00000000  00001864  2**0
                  CONTENTS, READONLY, DEBUGGING
  6 .debug_info   00003f5a  00000000  00000000  000019e4  2**0
                  CONTENTS, READONLY, DEBUGGING
  7 .debug_abbrev 000010e3  00000000  00000000  0000593e  2**0
                  CONTENTS, READONLY, DEBUGGING
  8 .debug_line   0000170a  00000000  00000000  00006a21  2**0
                  CONTENTS, READONLY, DEBUGGING
  9 .debug_frame  000004b0  00000000  00000000  0000812c  2**2
                  CONTENTS, READONLY, DEBUGGING
 10 .debug_str    00000a69  00000000  00000000  000085dc  2**0
                  CONTENTS, READONLY, DEBUGGING
 11 .debug_loc    00001a6c  00000000  00000000  00009045  2**0
                  CONTENTS, READONLY, DEBUGGING
 12 .debug_ranges 00000160  00000000  00000000  0000aab1  2**0
                  CONTENTS, READONLY, DEBUGGING

Disassembly of section .text:

00000000 <__vectors>:
       0:	9d c0       	rjmp	.+314    	; 0x13c <__ctors_end>
       2:	00 00       	nop
       4:	bb c0       	rjmp	.+374    	; 0x17c <__bad_interrupt>
       6:	00 00       	nop
       8:	b9 c0       	rjmp	.+370    	; 0x17c <__bad_interrupt>
       a:	00 00       	nop
       c:	b7 c0       	rjmp	.+366    	; 0x17c <__bad_interrupt>
       e:	00 00       	nop
      10:	b5 c0       	rjmp	.+362    	; 0x17c <__bad_interrupt>
      12:	00 00       	nop
      14:	b3 c0       	rjmp	.+358    	; 0x17c <__bad_interrupt>
      16:	00 00       	nop
      18:	b1 c0       	rjmp	.+354    	; 0x17c <__bad_interrupt>
      1a:	00 00       	nop
      1c:	af c0       	rjmp	.+350    	; 0x17c <__bad_interrupt>
      1e:	00 00       	nop
      20:	ad c0       	rjmp	.+346    	; 0x17c <__bad_interrupt>
      22:	00 00       	nop
      24:	ab c0       	rjmp	.+342    	; 0x17c <__bad_interrupt>
      26:	00 00       	nop
      28:	a9 c0       	rjmp	.+338    	; 0x17c <__bad_interrupt>
      2a:	00 00       	nop
      2c:	a7 c0       	rjmp	.+334    	; 0x17c <__bad_interrupt>
      2e:	00 00       	nop
      30:	a5 c0       	rjmp	.+330    	; 0x17c <__bad_interrupt>
      32:	00 00       	nop
      34:	a3 c0       	rjmp	.+326    	; 0x17c <__bad_interrupt>
      36:	00 00       	nop
      38:	a1 c0       	rjmp	.+322    	; 0x17c <__bad_interrupt>
      3a:	00 00       	nop
      3c:	9f c0       	rjmp	.+318    	; 0x17c <__bad_interrupt>
      3e:	00 00       	nop
      40:	9d c0       	rjmp	.+314    	; 0x17c <__bad_interrupt>
      42:	00 00       	nop
      44:	9b c0       	rjmp	.+310    	; 0x17c <__bad_interrupt>
      46:	00 00       	nop
      48:	99 c0       	rjmp	.+306    	; 0x17c <__bad_interrupt>
      4a:	00 00       	nop
      4c:	97 c0       	rjmp	.+302    	; 0x17c <__bad_interrupt>
      4e:	00 00       	nop
      50:	a5 c4       	rjmp	.+2378   	; 0x99c <__vector_20>
      52:	00 00       	nop
      54:	93 c0       	rjmp	.+294    	; 0x17c <__bad_interrupt>
      56:	00 00       	nop
      58:	91 c0       	rjmp	.+290    	; 0x17c <__bad_interrupt>
      5a:	00 00       	nop
      5c:	8f c0       	rjmp	.+286    	; 0x17c <__bad_interrupt>
      5e:	00 00       	nop
      60:	8d c0       	rjmp	.+282    	; 0x17c <__bad_interrupt>
      62:	00 00       	nop
      64:	25 c4       	rjmp	.+2122   	; 0x8b0 <__vector_25>
      66:	00 00       	nop
      68:	89 c0       	rjmp	.+274    	; 0x17c <__bad_interrupt>
      6a:	00 00       	nop
      6c:	87 c0       	rjmp	.+270    	; 0x17c <__bad_interrupt>
      6e:	00 00       	nop
      70:	85 c0       	rjmp	.+266    	; 0x17c <__bad_interrupt>
      72:	00 00       	nop
      74:	83 c0       	rjmp	.+262    	; 0x17c <__bad_interrupt>
      76:	00 00       	nop
      78:	81 c0       	rjmp	.+258    	; 0x17c <__bad_interrupt>
      7a:	00 00       	nop
      7c:	7f c0       	rjmp	.+254    	; 0x17c <__bad_interrupt>
      7e:	00 00       	nop
      80:	7d c0       	rjmp	.+250    	; 0x17c <__bad_interrupt>
      82:	00 00       	nop
      84:	7b c0       	rjmp	.+246    	; 0x17c <__bad_interrupt>
      86:	00 00       	nop
      88:	79 c0       	rjmp	.+242    	; 0x17c <__bad_interrupt>
      8a:	00 00       	nop
      8c:	77 c0       	rjmp	.+238    	; 0x17c <__bad_interrupt>
      8e:	00 00       	nop
      90:	75 c0       	rjmp	.+234    	; 0x17c <__bad_interrupt>
      92:	00 00       	nop
      94:	73 c0       	rjmp	.+230    	; 0x17c <__bad_interrupt>
      96:	00 00       	nop
      98:	71 c0       	rjmp	.+226    	; 0x17c <__bad_interrupt>
      9a:	00 00       	nop
      9c:	6f c0       	rjmp	.+222    	; 0x17c <__bad_interrupt>
      9e:	00 00       	nop
      a0:	6d c0       	rjmp	.+218    	; 0x17c <__bad_interrupt>
      a2:	00 00       	nop
      a4:	6b c0       	rjmp	.+214    	; 0x17c <__bad_interrupt>
      a6:	00 00       	nop
      a8:	69 c0       	rjmp	.+210    	; 0x17c <__bad_interrupt>
      aa:	00 00       	nop
      ac:	67 c0       	rjmp	.+206    	; 0x17c <__bad_interrupt>
      ae:	00 00       	nop
      b0:	65 c0       	rjmp	.+202    	; 0x17c <__bad_interrupt>
      b2:	00 00       	nop
      b4:	63 c0       	rjmp	.+198    	; 0x17c <__bad_interrupt>
      b6:	00 00       	nop
      b8:	61 c0       	rjmp	.+194    	; 0x17c <__bad_interrupt>
      ba:	00 00       	nop
      bc:	5f c0       	rjmp	.+190    	; 0x17c <__bad_interrupt>
      be:	00 00       	nop
      c0:	5d c0       	rjmp	.+186    	; 0x17c <__bad_interrupt>
      c2:	00 00       	nop
      c4:	5b c0       	rjmp	.+182    	; 0x17c <__bad_interrupt>
      c6:	00 00       	nop
      c8:	59 c0       	rjmp	.+178    	; 0x17c <__bad_interrupt>
      ca:	00 00       	nop
      cc:	84 c3       	rjmp	.+1800   	; 0x7d6 <__vector_51>
      ce:	00 00       	nop
      d0:	55 c0       	rjmp	.+170    	; 0x17c <__bad_interrupt>
      d2:	00 00       	nop
      d4:	53 c0       	rjmp	.+166    	; 0x17c <__bad_interrupt>
      d6:	00 00       	nop
      d8:	51 c0       	rjmp	.+162    	; 0x17c <__bad_interrupt>
      da:	00 00       	nop
      dc:	4f c0       	rjmp	.+158    	; 0x17c <__bad_interrupt>
      de:	00 00       	nop
      e0:	4d c0       	rjmp	.+154    	; 0x17c <__bad_interrupt>
      e2:	00 00       	nop
      e4:	b4 01       	movw	r22, r8
      e6:	cd 01       	movw	r24, r26
      e8:	cd 01       	movw	r24, r26
      ea:	cd 01       	movw	r24, r26
      ec:	b7 01       	movw	r22, r14
      ee:	ba 01       	movw	r22, r20
      f0:	cd 01       	movw	r24, r26
      f2:	be 01       	movw	r22, r28
      f4:	c2 01       	movw	r24, r4
      f6:	c6 01       	movw	r24, r12
      f8:	ca 01       	movw	r24, r20
      fa:	13 02       	muls	r17, r19
      fc:	2c 02       	muls	r18, r28
      fe:	2c 02       	muls	r18, r28
     100:	2c 02       	muls	r18, r28
     102:	16 02       	muls	r17, r22
     104:	19 02       	muls	r17, r25
     106:	2c 02       	muls	r18, r28
     108:	1d 02       	muls	r17, r29
     10a:	21 02       	muls	r18, r17
     10c:	25 02       	muls	r18, r21
     10e:	29 02       	muls	r18, r25
     110:	72 02       	muls	r23, r18
     112:	8b 02       	muls	r24, r27
     114:	8b 02       	muls	r24, r27
     116:	8b 02       	muls	r24, r27
     118:	75 02       	muls	r23, r21
     11a:	78 02       	muls	r23, r24
     11c:	8b 02       	muls	r24, r27
     11e:	7c 02       	muls	r23, r28
     120:	80 02       	muls	r24, r16
     122:	84 02       	muls	r24, r20
     124:	88 02       	muls	r24, r24
     126:	d1 02       	muls	r29, r17
     128:	ea 02       	muls	r30, r26
     12a:	ea 02       	muls	r30, r26
     12c:	ea 02       	muls	r30, r26
     12e:	d4 02       	muls	r29, r20
     130:	d7 02       	muls	r29, r23
     132:	ea 02       	muls	r30, r26
     134:	db 02       	muls	r29, r27
     136:	df 02       	muls	r29, r31
     138:	e3 02       	muls	r30, r19
     13a:	e7 02       	muls	r30, r23

0000013c <__ctors_end>:
     13c:	11 24       	eor	r1, r1
     13e:	1f be       	out	0x3f, r1	; 63
     140:	cf ef       	ldi	r28, 0xFF	; 255
     142:	d1 e2       	ldi	r29, 0x21	; 33
     144:	de bf       	out	0x3e, r29	; 62
     146:	cd bf       	out	0x3d, r28	; 61
     148:	00 e0       	ldi	r16, 0x00	; 0
     14a:	0c bf       	out	0x3c, r16	; 60

0000014c <__do_copy_data>:
     14c:	14 e0       	ldi	r17, 0x04	; 4
     14e:	a0 e0       	ldi	r26, 0x00	; 0
     150:	b2 e0       	ldi	r27, 0x02	; 2
     152:	e8 ed       	ldi	r30, 0xD8	; 216
     154:	f4 e1       	ldi	r31, 0x14	; 20
     156:	00 e0       	ldi	r16, 0x00	; 0
     158:	0b bf       	out	0x3b, r16	; 59
     15a:	02 c0       	rjmp	.+4      	; 0x160 <__do_copy_data+0x14>
     15c:	07 90       	elpm	r0, Z+
     15e:	0d 92       	st	X+, r0
     160:	a6 38       	cpi	r26, 0x86	; 134
     162:	b1 07       	cpc	r27, r17
     164:	d9 f7       	brne	.-10     	; 0x15c <__do_copy_data+0x10>

00000166 <__do_clear_bss>:
     166:	25 e0       	ldi	r18, 0x05	; 5
     168:	a6 e8       	ldi	r26, 0x86	; 134
     16a:	b4 e0       	ldi	r27, 0x04	; 4
     16c:	01 c0       	rjmp	.+2      	; 0x170 <.do_clear_bss_start>

0000016e <.do_clear_bss_loop>:
     16e:	1d 92       	st	X+, r1

00000170 <.do_clear_bss_start>:
     170:	ab 38       	cpi	r26, 0x8B	; 139
     172:	b2 07       	cpc	r27, r18
     174:	e1 f7       	brne	.-8      	; 0x16e <.do_clear_bss_loop>
     176:	03 d0       	rcall	.+6      	; 0x17e <main>
     178:	0c 94 6a 0a 	jmp	0x14d4	; 0x14d4 <_exit>

0000017c <__bad_interrupt>:
     17c:	41 cf       	rjmp	.-382    	; 0x0 <__vectors>

0000017e <main>:
	//uint8_t OneTimeRunFunFlag=0;
	uint32_t counting = 0;
	
	
	float stepdelay;
	USART2_Init(MYUBRR);
     17e:	87 e6       	ldi	r24, 0x67	; 103
     180:	90 e0       	ldi	r25, 0x00	; 0
     182:	7e d5       	rcall	.+2812   	; 0xc80 <USART2_Init>
	USART0_Init(MYUBRR);
     184:	87 e6       	ldi	r24, 0x67	; 103
     186:	90 e0       	ldi	r25, 0x00	; 0
	GpioPinInit();
     188:	5a d5       	rcall	.+2740   	; 0xc3e <USART0_Init>
     18a:	ac d4       	rcall	.+2392   	; 0xae4 <GpioPinInit>
	#else
		//round up by default
		__ticks_dc = (uint32_t)(ceil(fabs(__tmp)));
	#endif

	__builtin_avr_delay_cycles(__ticks_dc);
     18c:	2f ef       	ldi	r18, 0xFF	; 255
     18e:	83 ed       	ldi	r24, 0xD3	; 211
     190:	90 e3       	ldi	r25, 0x30	; 48
     192:	21 50       	subi	r18, 0x01	; 1
     194:	80 40       	sbci	r24, 0x00	; 0
     196:	90 40       	sbci	r25, 0x00	; 0
     198:	e1 f7       	brne	.-8      	; 0x192 <main+0x14>
     19a:	00 c0       	rjmp	.+0      	; 0x19c <main+0x1e>
	_delay_ms(1000);
	//Timer1_init();
	USART2_transmitstring("sdjcsdb");
     19c:	00 00       	nop
     19e:	82 e0       	ldi	r24, 0x02	; 2
     1a0:	92 e0       	ldi	r25, 0x02	; 2
	USART0_transmitstring("page Main");
     1a2:	91 d5       	rcall	.+2850   	; 0xcc6 <USART2_transmitstring>
     1a4:	8a e0       	ldi	r24, 0x0A	; 10
     1a6:	92 e0       	ldi	r25, 0x02	; 2
	Send_FF_to_Display();
     1a8:	5d d5       	rcall	.+2746   	; 0xc64 <USART0_transmitstring>
	if (EEPROM_Read2Bytes(P4_REG_E_WAIT_TIME_ADD)==0xFFFF)
     1aa:	f7 d6       	rcall	.+3566   	; 0xf9a <Send_FF_to_Display>
     1ac:	8e e5       	ldi	r24, 0x5E	; 94
     1ae:	90 e0       	ldi	r25, 0x00	; 0
     1b0:	63 d4       	rcall	.+2246   	; 0xa78 <EEPROM_Read2Bytes>
     1b2:	01 96       	adiw	r24, 0x01	; 1
		EEPROM_DisplayDataInit();
     1b4:	09 f4       	brne	.+2      	; 0x1b8 <main+0x3a>
     1b6:	ff d6       	rcall	.+3582   	; 0xfb6 <EEPROM_DisplayDataInit>
	GPIO_WriteToPin(&Motor_Dir, HIGH);
     1b8:	61 e0       	ldi	r22, 0x01	; 1
     1ba:	8d ed       	ldi	r24, 0xDD	; 221
     1bc:	94 e0       	ldi	r25, 0x04	; 4
     1be:	1a d5       	rcall	.+2612   	; 0xbf4 <GPIO_WriteToPin>
     1c0:	78 94       	sei
	//TIMSK1 &= ~(1<<0);	// Interrupt disable

	sei();		// To enable Global Interrupt, cli(); for disable
     1c2:	c2 e3       	ldi	r28, 0x32	; 50
												break;
											}
											
											case REG_END_BLO_TIME:
											{
												EndBlowerTimeSelected(P3_REG_A_END_BLOWER_TIME_ADD);
     1c4:	bf ef       	ldi	r27, 0xFF	; 255
     1c6:	21 ee       	ldi	r18, 0xE1	; 225
     1c8:	84 e0       	ldi	r24, 0x04	; 4
     1ca:	b1 50       	subi	r27, 0x01	; 1
     1cc:	20 40       	sbci	r18, 0x00	; 0
     1ce:	80 40       	sbci	r24, 0x00	; 0
     1d0:	e1 f7       	brne	.-8      	; 0x1ca <main+0x4c>
     1d2:	00 c0       	rjmp	.+0      	; 0x1d4 <main+0x56>
     1d4:	00 00       	nop
    while (1) 
    {	
		_delay_ms(DELAY_IN_LOOP);
		//USART2_transmitstring("\nat Home ");
		//USART0_transmitstring("Home ");
		switch(MatchCommand(rec_bufferglob))
     1d6:	89 e5       	ldi	r24, 0x59	; 89
     1d8:	95 e0       	ldi	r25, 0x05	; 5
     1da:	9a d5       	rcall	.+2868   	; 0xd10 <MatchCommand>
     1dc:	83 30       	cpi	r24, 0x03	; 3
     1de:	09 f4       	brne	.+2      	; 0x1e2 <main+0x64>
     1e0:	55 c1       	rjmp	.+682    	; 0x48c <__LOCK_REGION_LENGTH__+0x8c>
     1e2:	30 f4       	brcc	.+12     	; 0x1f0 <main+0x72>
     1e4:	81 30       	cpi	r24, 0x01	; 1
     1e6:	69 f0       	breq	.+26     	; 0x202 <main+0x84>
     1e8:	82 30       	cpi	r24, 0x02	; 2
     1ea:	09 f4       	brne	.+2      	; 0x1ee <main+0x70>
     1ec:	f0 c0       	rjmp	.+480    	; 0x3ce <main+0x250>
     1ee:	ea cf       	rjmp	.-44     	; 0x1c4 <main+0x46>
     1f0:	82 31       	cpi	r24, 0x12	; 18
     1f2:	09 f4       	brne	.+2      	; 0x1f6 <main+0x78>
     1f4:	09 c2       	rjmp	.+1042   	; 0x608 <__LOCK_REGION_LENGTH__+0x208>
     1f6:	84 31       	cpi	r24, 0x14	; 20
     1f8:	09 f4       	brne	.+2      	; 0x1fc <main+0x7e>
     1fa:	12 c2       	rjmp	.+1060   	; 0x620 <__LOCK_REGION_LENGTH__+0x220>
     1fc:	84 30       	cpi	r24, 0x04	; 4
     1fe:	11 f7       	brne	.-60     	; 0x1c4 <main+0x46>
     200:	a4 c1       	rjmp	.+840    	; 0x54a <__LOCK_REGION_LENGTH__+0x14a>
     202:	9f ef       	ldi	r25, 0xFF	; 255
     204:	a1 ee       	ldi	r26, 0xE1	; 225
     206:	b4 e0       	ldi	r27, 0x04	; 4
     208:	91 50       	subi	r25, 0x01	; 1
     20a:	a0 40       	sbci	r26, 0x00	; 0
     20c:	b0 40       	sbci	r27, 0x00	; 0
     20e:	e1 f7       	brne	.-8      	; 0x208 <main+0x8a>
     210:	00 c0       	rjmp	.+0      	; 0x212 <main+0x94>
     212:	00 00       	nop
					{	
						
						while(1)
						{
							_delay_ms(DELAY_IN_LOOP);
							switch(MatchCommand(rec_bufferglob))
     214:	89 e5       	ldi	r24, 0x59	; 89
     216:	95 e0       	ldi	r25, 0x05	; 5
     218:	7b d5       	rcall	.+2806   	; 0xd10 <MatchCommand>
     21a:	85 30       	cpi	r24, 0x05	; 5
     21c:	09 f4       	brne	.+2      	; 0x220 <main+0xa2>
     21e:	8c c0       	rjmp	.+280    	; 0x338 <main+0x1ba>
     220:	86 30       	cpi	r24, 0x06	; 6
     222:	09 f0       	breq	.+2      	; 0x226 <main+0xa8>
     224:	c6 c0       	rjmp	.+396    	; 0x3b2 <main+0x234>
     226:	2f ef       	ldi	r18, 0xFF	; 255
     228:	81 ee       	ldi	r24, 0xE1	; 225
     22a:	94 e0       	ldi	r25, 0x04	; 4
     22c:	21 50       	subi	r18, 0x01	; 1
     22e:	80 40       	sbci	r24, 0x00	; 0
     230:	90 40       	sbci	r25, 0x00	; 0
     232:	e1 f7       	brne	.-8      	; 0x22c <main+0xae>
     234:	00 c0       	rjmp	.+0      	; 0x236 <main+0xb8>
							{	
								case START:
									{
										_delay_ms(100);
										USART0_transmitstring("page STATUS");
     236:	00 00       	nop
     238:	84 e1       	ldi	r24, 0x14	; 20
     23a:	92 e0       	ldi	r25, 0x02	; 2
     23c:	13 d5       	rcall	.+2598   	; 0xc64 <USART0_transmitstring>
										Send_FF_to_Display();
     23e:	ad d6       	rcall	.+3418   	; 0xf9a <Send_FF_to_Display>
     240:	80 e2       	ldi	r24, 0x20	; 32
										Send_Text_On_Screen("Program 1 Initiated");
     242:	92 e0       	ldi	r25, 0x02	; 2
     244:	0e 94 66 09 	call	0x12cc	; 0x12cc <Send_Text_On_Screen>
     248:	af ef       	ldi	r26, 0xFF	; 255
     24a:	bd e3       	ldi	r27, 0x3D	; 61
     24c:	29 e4       	ldi	r18, 0x49	; 73
     24e:	a1 50       	subi	r26, 0x01	; 1
     250:	b0 40       	sbci	r27, 0x00	; 0
     252:	20 40       	sbci	r18, 0x00	; 0
     254:	e1 f7       	brne	.-8      	; 0x24e <main+0xd0>
     256:	00 c0       	rjmp	.+0      	; 0x258 <main+0xda>
     258:	00 00       	nop
										_delay_ms(1500);

										Send_Text_On_Screen("Drying Cycle In Progress...");
     25a:	84 e3       	ldi	r24, 0x34	; 52
     25c:	92 e0       	ldi	r25, 0x02	; 2
     25e:	0e 94 66 09 	call	0x12cc	; 0x12cc <Send_Text_On_Screen>
										Blower_ON(EEPROM_Read2Bytes(P1_REG_A_START_BLOWER_TIME_ADD));
     262:	80 e0       	ldi	r24, 0x00	; 0
     264:	90 e0       	ldi	r25, 0x00	; 0
     266:	08 d4       	rcall	.+2064   	; 0xa78 <EEPROM_Read2Bytes>
     268:	0e 94 a3 09 	call	0x1346	; 0x1346 <Blower_ON>
										
										Send_Text_On_Screen("Cycle 1 In Progress...");											
     26c:	80 e5       	ldi	r24, 0x50	; 80
     26e:	92 e0       	ldi	r25, 0x02	; 2
     270:	0e 94 66 09 	call	0x12cc	; 0x12cc <Send_Text_On_Screen>
										Dispense_Reagent(EEPROM_Read2Bytes(P1_REG_A_QTY_ADD), &Reagent_A_pump);				
     274:	84 e0       	ldi	r24, 0x04	; 4
     276:	90 e0       	ldi	r25, 0x00	; 0
     278:	ff d3       	rcall	.+2046   	; 0xa78 <EEPROM_Read2Bytes>
     27a:	6f e8       	ldi	r22, 0x8F	; 143
     27c:	74 e0       	ldi	r23, 0x04	; 4
     27e:	0e 94 c7 09 	call	0x138e	; 0x138e <Dispense_Reagent>
										Reagent_Wait_Time(EEPROM_Read2Bytes(P1_REG_A_WAIT_TIME_ADD));
     282:	86 e0       	ldi	r24, 0x06	; 6
     284:	90 e0       	ldi	r25, 0x00	; 0
     286:	f8 d3       	rcall	.+2032   	; 0xa78 <EEPROM_Read2Bytes>
     288:	0e 94 c8 09 	call	0x1390	; 0x1390 <Reagent_Wait_Time>
										//Spin_motor(EEPROM_Read2Bytes(SPIN_TIME_ADD));
										
										Send_Text_On_Screen("Cycle 2 In Progress...");
     28c:	87 e6       	ldi	r24, 0x67	; 103
     28e:	92 e0       	ldi	r25, 0x02	; 2
     290:	0e 94 66 09 	call	0x12cc	; 0x12cc <Send_Text_On_Screen>
										Dispense_Reagent(EEPROM_Read2Bytes(P1_REG_B_QTY_ADD), &Reagent_B_pump);
     294:	88 e0       	ldi	r24, 0x08	; 8
     296:	90 e0       	ldi	r25, 0x00	; 0
     298:	ef d3       	rcall	.+2014   	; 0xa78 <EEPROM_Read2Bytes>
     29a:	6d ec       	ldi	r22, 0xCD	; 205
     29c:	74 e0       	ldi	r23, 0x04	; 4
     29e:	0e 94 c7 09 	call	0x138e	; 0x138e <Dispense_Reagent>
										
										Send_Text_On_Screen("Cycle 3 In Progress...");
     2a2:	8e e7       	ldi	r24, 0x7E	; 126
     2a4:	92 e0       	ldi	r25, 0x02	; 2
     2a6:	0e 94 66 09 	call	0x12cc	; 0x12cc <Send_Text_On_Screen>
										Dispense_Reagent(EEPROM_Read2Bytes(P1_REG_C_QTY_ADD), &Reagent_C_pump);
     2aa:	8c e0       	ldi	r24, 0x0C	; 12
     2ac:	90 e0       	ldi	r25, 0x00	; 0
     2ae:	e4 d3       	rcall	.+1992   	; 0xa78 <EEPROM_Read2Bytes>
     2b0:	6f e1       	ldi	r22, 0x1F	; 31
     2b2:	75 e0       	ldi	r23, 0x05	; 5
										
										
										Send_Text_On_Screen("Cycle 4 In Progress...");
     2b4:	0e 94 c7 09 	call	0x138e	; 0x138e <Dispense_Reagent>
     2b8:	85 e9       	ldi	r24, 0x95	; 149
     2ba:	92 e0       	ldi	r25, 0x02	; 2
										Dispense_Reagent(EEPROM_Read2Bytes(P1_REG_D_QTY_ADD), &Reagent_D_pump);
     2bc:	0e 94 66 09 	call	0x12cc	; 0x12cc <Send_Text_On_Screen>
     2c0:	80 e1       	ldi	r24, 0x10	; 16
     2c2:	90 e0       	ldi	r25, 0x00	; 0
     2c4:	d9 d3       	rcall	.+1970   	; 0xa78 <EEPROM_Read2Bytes>
     2c6:	67 e1       	ldi	r22, 0x17	; 23
     2c8:	75 e0       	ldi	r23, 0x05	; 5
										 										
 										Send_Text_On_Screen("Cycle 5 In Progress...");
     2ca:	0e 94 c7 09 	call	0x138e	; 0x138e <Dispense_Reagent>
     2ce:	8c ea       	ldi	r24, 0xAC	; 172
     2d0:	92 e0       	ldi	r25, 0x02	; 2
 										Dispense_Reagent(EEPROM_Read2Bytes(P1_REG_E_QTY_ADD), &Reagent_E_pump); 
     2d2:	fc d7       	rcall	.+4088   	; 0x12cc <Send_Text_On_Screen>
     2d4:	84 e1       	ldi	r24, 0x14	; 20
     2d6:	90 e0       	ldi	r25, 0x00	; 0
     2d8:	cf d3       	rcall	.+1950   	; 0xa78 <EEPROM_Read2Bytes>
     2da:	69 ed       	ldi	r22, 0xD9	; 217
     2dc:	74 e0       	ldi	r23, 0x04	; 4
																			
										Send_Text_On_Screen("Draining Cycle In Progress...");
     2de:	0e 94 c7 09 	call	0x138e	; 0x138e <Dispense_Reagent>
     2e2:	83 ec       	ldi	r24, 0xC3	; 195
     2e4:	92 e0       	ldi	r25, 0x02	; 2
     2e6:	f2 d7       	rcall	.+4068   	; 0x12cc <Send_Text_On_Screen>
     2e8:	8f ef       	ldi	r24, 0xFF	; 255
     2ea:	93 ed       	ldi	r25, 0xD3	; 211
     2ec:	a0 e3       	ldi	r26, 0x30	; 48
     2ee:	81 50       	subi	r24, 0x01	; 1
     2f0:	90 40       	sbci	r25, 0x00	; 0
     2f2:	a0 40       	sbci	r26, 0x00	; 0
     2f4:	e1 f7       	brne	.-8      	; 0x2ee <main+0x170>
     2f6:	00 c0       	rjmp	.+0      	; 0x2f8 <main+0x17a>
										_delay_ms(1000);
										
										Send_Text_On_Screen("End of Program 1, remove tray.");
     2f8:	00 00       	nop
     2fa:	81 ee       	ldi	r24, 0xE1	; 225
											
										Blower_ON(EEPROM_Read2Bytes(P1_REG_A_END_BLOWER_TIME_ADD));
     2fc:	92 e0       	ldi	r25, 0x02	; 2
     2fe:	e6 d7       	rcall	.+4044   	; 0x12cc <Send_Text_On_Screen>
     300:	82 e0       	ldi	r24, 0x02	; 2
     302:	90 e0       	ldi	r25, 0x00	; 0
     304:	b9 d3       	rcall	.+1906   	; 0xa78 <EEPROM_Read2Bytes>
     306:	0e 94 a3 09 	call	0x1346	; 0x1346 <Blower_ON>
     30a:	bf ef       	ldi	r27, 0xFF	; 255
     30c:	27 ea       	ldi	r18, 0xA7	; 167
     30e:	81 e6       	ldi	r24, 0x61	; 97
     310:	b1 50       	subi	r27, 0x01	; 1
     312:	20 40       	sbci	r18, 0x00	; 0
     314:	80 40       	sbci	r24, 0x00	; 0
     316:	e1 f7       	brne	.-8      	; 0x310 <main+0x192>
     318:	00 c0       	rjmp	.+0      	; 0x31a <main+0x19c>
										_delay_ms(2000); 
										USART0_transmitstring("page Main");
     31a:	00 00       	nop
     31c:	8a e0       	ldi	r24, 0x0A	; 10
     31e:	92 e0       	ldi	r25, 0x02	; 2
     320:	a1 d4       	rcall	.+2370   	; 0xc64 <USART0_transmitstring>
										Send_FF_to_Display(); 
     322:	3b d6       	rcall	.+3190   	; 0xf9a <Send_FF_to_Display>
										strcpy(rec_bufferglob, "back");
     324:	85 e0       	ldi	r24, 0x05	; 5
     326:	e0 e0       	ldi	r30, 0x00	; 0
     328:	f3 e0       	ldi	r31, 0x03	; 3
     32a:	a9 e5       	ldi	r26, 0x59	; 89
     32c:	b5 e0       	ldi	r27, 0x05	; 5
     32e:	01 90       	ld	r0, Z+
     330:	0d 92       	st	X+, r0
     332:	8a 95       	dec	r24
     334:	e1 f7       	brne	.-8      	; 0x32e <main+0x1b0>
										//memset(rec_bufferglob, '\0', PACKET_SIZE * sizeof(rec_bufferglob[0]));	// rec_bufferglob clear
										break;
     336:	3d c0       	rjmp	.+122    	; 0x3b2 <main+0x234>
     338:	9f ef       	ldi	r25, 0xFF	; 255
     33a:	a1 ee       	ldi	r26, 0xE1	; 225
     33c:	b4 e0       	ldi	r27, 0x04	; 4
     33e:	91 50       	subi	r25, 0x01	; 1
     340:	a0 40       	sbci	r26, 0x00	; 0
     342:	b0 40       	sbci	r27, 0x00	; 0
     344:	e1 f7       	brne	.-8      	; 0x33e <main+0x1c0>
								case P1EDIT:
									{	
										while(1)
										{
											_delay_ms(DELAY_IN_LOOP);
											switch(MatchCommand(rec_bufferglob))
     346:	00 c0       	rjmp	.+0      	; 0x348 <main+0x1ca>
     348:	00 00       	nop
     34a:	89 e5       	ldi	r24, 0x59	; 89
     34c:	95 e0       	ldi	r25, 0x05	; 5
     34e:	e0 d4       	rcall	.+2496   	; 0xd10 <MatchCommand>
     350:	90 e0       	ldi	r25, 0x00	; 0
     352:	fc 01       	movw	r30, r24
     354:	37 97       	sbiw	r30, 0x07	; 7
     356:	eb 30       	cpi	r30, 0x0B	; 11
     358:	f1 05       	cpc	r31, r1
     35a:	f8 f4       	brcc	.+62     	; 0x39a <main+0x21c>
     35c:	88 27       	eor	r24, r24
											{
												case REG_START_BLO_TIME:
												{
													StartBlowerTimeSelected(P1_REG_A_START_BLOWER_TIME_ADD);
     35e:	ee 58       	subi	r30, 0x8E	; 142
     360:	ff 4f       	sbci	r31, 0xFF	; 255
													break;
												}
													
												case REG_END_BLO_TIME:
												{
													EndBlowerTimeSelected(P1_REG_A_END_BLOWER_TIME_ADD);
     362:	8f 4f       	sbci	r24, 0xFF	; 255
     364:	0c 94 ea 09 	jmp	0x13d4	; 0x13d4 <__tablejump2__>
													break;
     368:	80 e0       	ldi	r24, 0x00	; 0
												}
												
												case REGA:
												{
													ReagentSelected(P1_REG_A_QTY_ADD, P1_REG_A_WAIT_TIME_ADD);
     36a:	d5 d6       	rcall	.+3498   	; 0x1116 <StartBlowerTimeSelected>
     36c:	16 c0       	rjmp	.+44     	; 0x39a <main+0x21c>
     36e:	82 e0       	ldi	r24, 0x02	; 2
     370:	1b d7       	rcall	.+3638   	; 0x11a8 <EndBlowerTimeSelected>
													break;
     372:	13 c0       	rjmp	.+38     	; 0x39a <main+0x21c>
												}
												
												case REGB:
												{
													ReagentSelected(P1_REG_B_QTY_ADD, P1_REG_B_WAIT_TIME_ADD);
     374:	66 e0       	ldi	r22, 0x06	; 6
     376:	84 e0       	ldi	r24, 0x04	; 4
     378:	31 d6       	rcall	.+3170   	; 0xfdc <ReagentSelected>
													break;
     37a:	0f c0       	rjmp	.+30     	; 0x39a <main+0x21c>
												}
												
												case REGC:
												{
													ReagentSelected(P1_REG_C_QTY_ADD, P1_REG_C_WAIT_TIME_ADD);
     37c:	6a e0       	ldi	r22, 0x0A	; 10
     37e:	88 e0       	ldi	r24, 0x08	; 8
     380:	2d d6       	rcall	.+3162   	; 0xfdc <ReagentSelected>
     382:	0b c0       	rjmp	.+22     	; 0x39a <main+0x21c>
													break;
     384:	6e e0       	ldi	r22, 0x0E	; 14
												}
												
												case REGD:
												{
													ReagentSelected(P1_REG_D_QTY_ADD, P1_REG_D_WAIT_TIME_ADD);
     386:	8c e0       	ldi	r24, 0x0C	; 12
     388:	29 d6       	rcall	.+3154   	; 0xfdc <ReagentSelected>
     38a:	07 c0       	rjmp	.+14     	; 0x39a <main+0x21c>
     38c:	62 e1       	ldi	r22, 0x12	; 18
													break;
     38e:	80 e1       	ldi	r24, 0x10	; 16
												}
												case REGE:
												{
													ReagentSelected(P1_REG_E_QTY_ADD, P1_REG_E_WAIT_TIME_ADD);
     390:	25 d6       	rcall	.+3146   	; 0xfdc <ReagentSelected>
     392:	03 c0       	rjmp	.+6      	; 0x39a <main+0x21c>
     394:	66 e1       	ldi	r22, 0x16	; 22
     396:	84 e1       	ldi	r24, 0x14	; 20
													break;
												}
													
											}
											
											if (MatchCommand(rec_bufferglob)==BACK)
     398:	21 d6       	rcall	.+3138   	; 0xfdc <ReagentSelected>
     39a:	89 e5       	ldi	r24, 0x59	; 89
     39c:	95 e0       	ldi	r25, 0x05	; 5
     39e:	b8 d4       	rcall	.+2416   	; 0xd10 <MatchCommand>
     3a0:	84 36       	cpi	r24, 0x64	; 100
     3a2:	51 f6       	brne	.-108    	; 0x338 <main+0x1ba>
											{
												memset(rec_bufferglob, '\0', PACKET_SIZE * sizeof(rec_bufferglob[0]));	// rec_bufferglob clear
     3a4:	e9 e5       	ldi	r30, 0x59	; 89
     3a6:	f5 e0       	ldi	r31, 0x05	; 5
     3a8:	df 01       	movw	r26, r30
     3aa:	2c 2f       	mov	r18, r28
     3ac:	1d 92       	st	X+, r1
     3ae:	2a 95       	dec	r18
										break;
									}
									
							}
							
							if (MatchCommand(rec_bufferglob)==BACK)
     3b0:	e9 f7       	brne	.-6      	; 0x3ac <main+0x22e>
     3b2:	89 e5       	ldi	r24, 0x59	; 89
     3b4:	95 e0       	ldi	r25, 0x05	; 5
     3b6:	ac d4       	rcall	.+2392   	; 0xd10 <MatchCommand>
     3b8:	84 36       	cpi	r24, 0x64	; 100
     3ba:	09 f0       	breq	.+2      	; 0x3be <main+0x240>
								{
									memset(rec_bufferglob, '\0', PACKET_SIZE * sizeof(rec_bufferglob[0]));	// rec_bufferglob clear
     3bc:	22 cf       	rjmp	.-444    	; 0x202 <main+0x84>
     3be:	e9 e5       	ldi	r30, 0x59	; 89
     3c0:	f5 e0       	ldi	r31, 0x05	; 5
     3c2:	df 01       	movw	r26, r30
     3c4:	2c 2f       	mov	r18, r28
     3c6:	1d 92       	st	X+, r1
     3c8:	2a 95       	dec	r18
     3ca:	e9 f7       	brne	.-6      	; 0x3c6 <main+0x248>
     3cc:	fb ce       	rjmp	.-522    	; 0x1c4 <main+0x46>
     3ce:	8f ef       	ldi	r24, 0xFF	; 255
     3d0:	91 ee       	ldi	r25, 0xE1	; 225
     3d2:	a4 e0       	ldi	r26, 0x04	; 4
     3d4:	81 50       	subi	r24, 0x01	; 1
     3d6:	90 40       	sbci	r25, 0x00	; 0
     3d8:	a0 40       	sbci	r26, 0x00	; 0
			case PROGRAM_2:
					{
						while(1)
						{
							_delay_ms(DELAY_IN_LOOP);
							switch(MatchCommand(rec_bufferglob))
     3da:	e1 f7       	brne	.-8      	; 0x3d4 <main+0x256>
     3dc:	00 c0       	rjmp	.+0      	; 0x3de <main+0x260>
     3de:	00 00       	nop
     3e0:	89 e5       	ldi	r24, 0x59	; 89
     3e2:	95 e0       	ldi	r25, 0x05	; 5
     3e4:	95 d4       	rcall	.+2346   	; 0xd10 <MatchCommand>
     3e6:	85 30       	cpi	r24, 0x05	; 5
							{
								case START:
								{
									USART2_transmitstring("Start");
     3e8:	39 f0       	breq	.+14     	; 0x3f8 <main+0x27a>
     3ea:	86 30       	cpi	r24, 0x06	; 6
     3ec:	09 f0       	breq	.+2      	; 0x3f0 <main+0x272>
									break;
     3ee:	40 c0       	rjmp	.+128    	; 0x470 <__LOCK_REGION_LENGTH__+0x70>
     3f0:	85 e0       	ldi	r24, 0x05	; 5
     3f2:	93 e0       	ldi	r25, 0x03	; 3
     3f4:	68 d4       	rcall	.+2256   	; 0xcc6 <USART2_transmitstring>
     3f6:	3c c0       	rjmp	.+120    	; 0x470 <__LOCK_REGION_LENGTH__+0x70>
     3f8:	bf ef       	ldi	r27, 0xFF	; 255
     3fa:	21 ee       	ldi	r18, 0xE1	; 225
     3fc:	84 e0       	ldi	r24, 0x04	; 4
								case P1EDIT:
								{
									while(1)
									{
										_delay_ms(DELAY_IN_LOOP);
										switch(MatchCommand(rec_bufferglob))
     3fe:	b1 50       	subi	r27, 0x01	; 1
     400:	20 40       	sbci	r18, 0x00	; 0
     402:	80 40       	sbci	r24, 0x00	; 0
     404:	e1 f7       	brne	.-8      	; 0x3fe <main+0x280>
     406:	00 c0       	rjmp	.+0      	; 0x408 <__LOCK_REGION_LENGTH__+0x8>
     408:	00 00       	nop
     40a:	89 e5       	ldi	r24, 0x59	; 89
     40c:	95 e0       	ldi	r25, 0x05	; 5
     40e:	80 d4       	rcall	.+2304   	; 0xd10 <MatchCommand>
     410:	90 e0       	ldi	r25, 0x00	; 0
     412:	fc 01       	movw	r30, r24
     414:	37 97       	sbiw	r30, 0x07	; 7
     416:	eb 30       	cpi	r30, 0x0B	; 11
										{
											case REG_START_BLO_TIME:
											{
												StartBlowerTimeSelected(P2_REG_A_START_BLOWER_TIME_ADD);
     418:	f1 05       	cpc	r31, r1
     41a:	f0 f4       	brcc	.+60     	; 0x458 <__LOCK_REGION_LENGTH__+0x58>
     41c:	88 27       	eor	r24, r24
												break;
											}
											
											case REG_END_BLO_TIME:
											{
												EndBlowerTimeSelected(P2_REG_A_END_BLOWER_TIME_ADD);
     41e:	e3 58       	subi	r30, 0x83	; 131
     420:	ff 4f       	sbci	r31, 0xFF	; 255
     422:	8f 4f       	sbci	r24, 0xFF	; 255
												break;
     424:	d7 c7       	rjmp	.+4014   	; 0x13d4 <__tablejump2__>
											}
											
											case REGA:
											{
												ReagentSelected(P2_REG_A_QTY_ADD, P2_REG_A_WAIT_TIME_ADD);
     426:	88 e1       	ldi	r24, 0x18	; 24
     428:	76 d6       	rcall	.+3308   	; 0x1116 <StartBlowerTimeSelected>
     42a:	16 c0       	rjmp	.+44     	; 0x458 <__LOCK_REGION_LENGTH__+0x58>
     42c:	8a e1       	ldi	r24, 0x1A	; 26
												break;
     42e:	bc d6       	rcall	.+3448   	; 0x11a8 <EndBlowerTimeSelected>
											}
											
											case REGB:
											{
												ReagentSelected(P2_REG_B_QTY_ADD, P2_REG_B_WAIT_TIME_ADD);
     430:	13 c0       	rjmp	.+38     	; 0x458 <__LOCK_REGION_LENGTH__+0x58>
     432:	6e e1       	ldi	r22, 0x1E	; 30
     434:	8c e1       	ldi	r24, 0x1C	; 28
     436:	d2 d5       	rcall	.+2980   	; 0xfdc <ReagentSelected>
												break;
     438:	0f c0       	rjmp	.+30     	; 0x458 <__LOCK_REGION_LENGTH__+0x58>
											}
											
											case REGC:
											{
												ReagentSelected(P2_REG_C_QTY_ADD, P2_REG_C_WAIT_TIME_ADD);
     43a:	62 e2       	ldi	r22, 0x22	; 34
     43c:	80 e2       	ldi	r24, 0x20	; 32
     43e:	ce d5       	rcall	.+2972   	; 0xfdc <ReagentSelected>
     440:	0b c0       	rjmp	.+22     	; 0x458 <__LOCK_REGION_LENGTH__+0x58>
												break;
     442:	66 e2       	ldi	r22, 0x26	; 38
											}
											
											case REGD:
											{
												ReagentSelected(P2_REG_D_QTY_ADD, P2_REG_D_WAIT_TIME_ADD);
     444:	84 e2       	ldi	r24, 0x24	; 36
     446:	ca d5       	rcall	.+2964   	; 0xfdc <ReagentSelected>
     448:	07 c0       	rjmp	.+14     	; 0x458 <__LOCK_REGION_LENGTH__+0x58>
												break;
     44a:	6a e2       	ldi	r22, 0x2A	; 42
											}
											case REGE:
											{
												ReagentSelected(P2_REG_E_QTY_ADD, P2_REG_E_WAIT_TIME_ADD);
     44c:	88 e2       	ldi	r24, 0x28	; 40
     44e:	c6 d5       	rcall	.+2956   	; 0xfdc <ReagentSelected>
     450:	03 c0       	rjmp	.+6      	; 0x458 <__LOCK_REGION_LENGTH__+0x58>
     452:	6e e2       	ldi	r22, 0x2E	; 46
												break;
											}
											
										}
										
										if (MatchCommand(rec_bufferglob)==BACK)
     454:	8c e2       	ldi	r24, 0x2C	; 44
     456:	c2 d5       	rcall	.+2948   	; 0xfdc <ReagentSelected>
     458:	89 e5       	ldi	r24, 0x59	; 89
     45a:	95 e0       	ldi	r25, 0x05	; 5
     45c:	59 d4       	rcall	.+2226   	; 0xd10 <MatchCommand>
										{
											memset(rec_bufferglob, '\0', PACKET_SIZE * sizeof(rec_bufferglob[0]));	// rec_bufferglob clear
     45e:	84 36       	cpi	r24, 0x64	; 100
     460:	59 f6       	brne	.-106    	; 0x3f8 <main+0x27a>
     462:	e9 e5       	ldi	r30, 0x59	; 89
     464:	f5 e0       	ldi	r31, 0x05	; 5
     466:	df 01       	movw	r26, r30
     468:	2c 2f       	mov	r18, r28
     46a:	1d 92       	st	X+, r1
									break;
								}
								
							}
							
							if (MatchCommand(rec_bufferglob)==BACK)
     46c:	2a 95       	dec	r18
     46e:	e9 f7       	brne	.-6      	; 0x46a <__LOCK_REGION_LENGTH__+0x6a>
     470:	89 e5       	ldi	r24, 0x59	; 89
     472:	95 e0       	ldi	r25, 0x05	; 5
     474:	4d d4       	rcall	.+2202   	; 0xd10 <MatchCommand>
     476:	84 36       	cpi	r24, 0x64	; 100
							{
								memset(rec_bufferglob, '\0', PACKET_SIZE * sizeof(rec_bufferglob[0]));	// rec_bufferglob clear
     478:	09 f0       	breq	.+2      	; 0x47c <__LOCK_REGION_LENGTH__+0x7c>
     47a:	a9 cf       	rjmp	.-174    	; 0x3ce <main+0x250>
     47c:	e9 e5       	ldi	r30, 0x59	; 89
     47e:	f5 e0       	ldi	r31, 0x05	; 5
     480:	df 01       	movw	r26, r30
     482:	2c 2f       	mov	r18, r28
								break;
							}
						}
						break;
     484:	1d 92       	st	X+, r1
     486:	2a 95       	dec	r18
     488:	e9 f7       	brne	.-6      	; 0x484 <__LOCK_REGION_LENGTH__+0x84>
     48a:	9c ce       	rjmp	.-712    	; 0x1c4 <main+0x46>
     48c:	8f ef       	ldi	r24, 0xFF	; 255
     48e:	91 ee       	ldi	r25, 0xE1	; 225
     490:	a4 e0       	ldi	r26, 0x04	; 4
     492:	81 50       	subi	r24, 0x01	; 1
			case PROGRAM_3:
					{
						while(1)
						{
							_delay_ms(DELAY_IN_LOOP);
							switch(MatchCommand(rec_bufferglob))
     494:	90 40       	sbci	r25, 0x00	; 0
     496:	a0 40       	sbci	r26, 0x00	; 0
     498:	e1 f7       	brne	.-8      	; 0x492 <__LOCK_REGION_LENGTH__+0x92>
     49a:	00 c0       	rjmp	.+0      	; 0x49c <__LOCK_REGION_LENGTH__+0x9c>
     49c:	00 00       	nop
     49e:	89 e5       	ldi	r24, 0x59	; 89
     4a0:	95 e0       	ldi	r25, 0x05	; 5
							{
								case START:
								{
									USART2_transmitstring("Start");
     4a2:	36 d4       	rcall	.+2156   	; 0xd10 <MatchCommand>
     4a4:	85 30       	cpi	r24, 0x05	; 5
     4a6:	39 f0       	breq	.+14     	; 0x4b6 <__LOCK_REGION_LENGTH__+0xb6>
									break;
     4a8:	86 30       	cpi	r24, 0x06	; 6
     4aa:	09 f0       	breq	.+2      	; 0x4ae <__LOCK_REGION_LENGTH__+0xae>
     4ac:	40 c0       	rjmp	.+128    	; 0x52e <__LOCK_REGION_LENGTH__+0x12e>
     4ae:	85 e0       	ldi	r24, 0x05	; 5
     4b0:	93 e0       	ldi	r25, 0x03	; 3
     4b2:	09 d4       	rcall	.+2066   	; 0xcc6 <USART2_transmitstring>
     4b4:	3c c0       	rjmp	.+120    	; 0x52e <__LOCK_REGION_LENGTH__+0x12e>
     4b6:	bf ef       	ldi	r27, 0xFF	; 255
								case P1EDIT:
								{
									while(1)
									{
										_delay_ms(DELAY_IN_LOOP);
										switch(MatchCommand(rec_bufferglob))
     4b8:	21 ee       	ldi	r18, 0xE1	; 225
     4ba:	84 e0       	ldi	r24, 0x04	; 4
     4bc:	b1 50       	subi	r27, 0x01	; 1
     4be:	20 40       	sbci	r18, 0x00	; 0
     4c0:	80 40       	sbci	r24, 0x00	; 0
     4c2:	e1 f7       	brne	.-8      	; 0x4bc <__LOCK_REGION_LENGTH__+0xbc>
     4c4:	00 c0       	rjmp	.+0      	; 0x4c6 <__LOCK_REGION_LENGTH__+0xc6>
     4c6:	00 00       	nop
     4c8:	89 e5       	ldi	r24, 0x59	; 89
     4ca:	95 e0       	ldi	r25, 0x05	; 5
     4cc:	21 d4       	rcall	.+2114   	; 0xd10 <MatchCommand>
     4ce:	90 e0       	ldi	r25, 0x00	; 0
     4d0:	fc 01       	movw	r30, r24
     4d2:	37 97       	sbiw	r30, 0x07	; 7
     4d4:	eb 30       	cpi	r30, 0x0B	; 11
										{
											case REG_START_BLO_TIME:
											{
												StartBlowerTimeSelected(P3_REG_A_START_BLOWER_TIME_ADD);
     4d6:	f1 05       	cpc	r31, r1
     4d8:	f0 f4       	brcc	.+60     	; 0x516 <__LOCK_REGION_LENGTH__+0x116>
     4da:	88 27       	eor	r24, r24
												break;
     4dc:	e8 57       	subi	r30, 0x78	; 120
											}
											
											case REG_END_BLO_TIME:
											{
												EndBlowerTimeSelected(P3_REG_A_END_BLOWER_TIME_ADD);
     4de:	ff 4f       	sbci	r31, 0xFF	; 255
     4e0:	8f 4f       	sbci	r24, 0xFF	; 255
     4e2:	78 c7       	rjmp	.+3824   	; 0x13d4 <__tablejump2__>
												break;
     4e4:	80 e3       	ldi	r24, 0x30	; 48
											}
											
											case REGA:
											{
												ReagentSelected(P3_REG_A_QTY_ADD, P3_REG_A_WAIT_TIME_ADD);
     4e6:	17 d6       	rcall	.+3118   	; 0x1116 <StartBlowerTimeSelected>
     4e8:	16 c0       	rjmp	.+44     	; 0x516 <__LOCK_REGION_LENGTH__+0x116>
     4ea:	8c 2f       	mov	r24, r28
     4ec:	5d d6       	rcall	.+3258   	; 0x11a8 <EndBlowerTimeSelected>
												break;
     4ee:	13 c0       	rjmp	.+38     	; 0x516 <__LOCK_REGION_LENGTH__+0x116>
											}
											
											case REGB:
											{
												ReagentSelected(P3_REG_B_QTY_ADD, P3_REG_B_WAIT_TIME_ADD);
     4f0:	66 e3       	ldi	r22, 0x36	; 54
     4f2:	84 e3       	ldi	r24, 0x34	; 52
     4f4:	73 d5       	rcall	.+2790   	; 0xfdc <ReagentSelected>
												break;
     4f6:	0f c0       	rjmp	.+30     	; 0x516 <__LOCK_REGION_LENGTH__+0x116>
											}
											
											case REGC:
											{
												ReagentSelected(P3_REG_C_QTY_ADD, P3_REG_C_WAIT_TIME_ADD);
     4f8:	6a e3       	ldi	r22, 0x3A	; 58
     4fa:	88 e3       	ldi	r24, 0x38	; 56
     4fc:	6f d5       	rcall	.+2782   	; 0xfdc <ReagentSelected>
     4fe:	0b c0       	rjmp	.+22     	; 0x516 <__LOCK_REGION_LENGTH__+0x116>
												break;
											}
											
											case REGD:
											{
												ReagentSelected(P3_REG_D_QTY_ADD, P3_REG_D_WAIT_TIME_ADD);
     500:	6e e3       	ldi	r22, 0x3E	; 62
     502:	8c e3       	ldi	r24, 0x3C	; 60
     504:	6b d5       	rcall	.+2774   	; 0xfdc <ReagentSelected>
     506:	07 c0       	rjmp	.+14     	; 0x516 <__LOCK_REGION_LENGTH__+0x116>
												break;
     508:	62 e4       	ldi	r22, 0x42	; 66
											}
											case REGE:
											{
												ReagentSelected(P3_REG_E_QTY_ADD, P3_REG_E_WAIT_TIME_ADD);
     50a:	80 e4       	ldi	r24, 0x40	; 64
     50c:	67 d5       	rcall	.+2766   	; 0xfdc <ReagentSelected>
     50e:	03 c0       	rjmp	.+6      	; 0x516 <__LOCK_REGION_LENGTH__+0x116>
     510:	66 e4       	ldi	r22, 0x46	; 70
												break;
											}
											
										}
										
										if (MatchCommand(rec_bufferglob)==BACK)
     512:	84 e4       	ldi	r24, 0x44	; 68
     514:	63 d5       	rcall	.+2758   	; 0xfdc <ReagentSelected>
     516:	89 e5       	ldi	r24, 0x59	; 89
     518:	95 e0       	ldi	r25, 0x05	; 5
     51a:	fa d3       	rcall	.+2036   	; 0xd10 <MatchCommand>
										{
											memset(rec_bufferglob, '\0', PACKET_SIZE * sizeof(rec_bufferglob[0]));	// rec_bufferglob clear
     51c:	84 36       	cpi	r24, 0x64	; 100
     51e:	59 f6       	brne	.-106    	; 0x4b6 <__LOCK_REGION_LENGTH__+0xb6>
     520:	e9 e5       	ldi	r30, 0x59	; 89
     522:	f5 e0       	ldi	r31, 0x05	; 5
     524:	df 01       	movw	r26, r30
     526:	2c 2f       	mov	r18, r28
     528:	1d 92       	st	X+, r1
									break;
								}
								
							}
							
							if (MatchCommand(rec_bufferglob)==BACK)
     52a:	2a 95       	dec	r18
     52c:	e9 f7       	brne	.-6      	; 0x528 <__LOCK_REGION_LENGTH__+0x128>
     52e:	89 e5       	ldi	r24, 0x59	; 89
     530:	95 e0       	ldi	r25, 0x05	; 5
     532:	ee d3       	rcall	.+2012   	; 0xd10 <MatchCommand>
							{
								memset(rec_bufferglob, '\0', PACKET_SIZE * sizeof(rec_bufferglob[0]));	// rec_bufferglob clear
     534:	84 36       	cpi	r24, 0x64	; 100
     536:	09 f0       	breq	.+2      	; 0x53a <__LOCK_REGION_LENGTH__+0x13a>
     538:	a9 cf       	rjmp	.-174    	; 0x48c <__LOCK_REGION_LENGTH__+0x8c>
     53a:	e9 e5       	ldi	r30, 0x59	; 89
     53c:	f5 e0       	ldi	r31, 0x05	; 5
     53e:	df 01       	movw	r26, r30
     540:	2c 2f       	mov	r18, r28
     542:	1d 92       	st	X+, r1
     544:	2a 95       	dec	r18
     546:	e9 f7       	brne	.-6      	; 0x542 <__LOCK_REGION_LENGTH__+0x142>
     548:	3d ce       	rjmp	.-902    	; 0x1c4 <main+0x46>
     54a:	8f ef       	ldi	r24, 0xFF	; 255
     54c:	91 ee       	ldi	r25, 0xE1	; 225
			case PROGRAM_4:
					{
						while(1)
						{
							_delay_ms(DELAY_IN_LOOP);
							switch(MatchCommand(rec_bufferglob))
     54e:	a4 e0       	ldi	r26, 0x04	; 4
     550:	81 50       	subi	r24, 0x01	; 1
     552:	90 40       	sbci	r25, 0x00	; 0
     554:	a0 40       	sbci	r26, 0x00	; 0
     556:	e1 f7       	brne	.-8      	; 0x550 <__LOCK_REGION_LENGTH__+0x150>
     558:	00 c0       	rjmp	.+0      	; 0x55a <__LOCK_REGION_LENGTH__+0x15a>
     55a:	00 00       	nop
							{
								case START:
								{
									USART2_transmitstring("Start");
     55c:	89 e5       	ldi	r24, 0x59	; 89
     55e:	95 e0       	ldi	r25, 0x05	; 5
     560:	d7 d3       	rcall	.+1966   	; 0xd10 <MatchCommand>
     562:	85 30       	cpi	r24, 0x05	; 5
									break;
     564:	39 f0       	breq	.+14     	; 0x574 <__LOCK_REGION_LENGTH__+0x174>
     566:	86 30       	cpi	r24, 0x06	; 6
     568:	09 f0       	breq	.+2      	; 0x56c <__LOCK_REGION_LENGTH__+0x16c>
     56a:	40 c0       	rjmp	.+128    	; 0x5ec <__LOCK_REGION_LENGTH__+0x1ec>
     56c:	85 e0       	ldi	r24, 0x05	; 5
     56e:	93 e0       	ldi	r25, 0x03	; 3
     570:	aa d3       	rcall	.+1876   	; 0xcc6 <USART2_transmitstring>
     572:	3c c0       	rjmp	.+120    	; 0x5ec <__LOCK_REGION_LENGTH__+0x1ec>
     574:	bf ef       	ldi	r27, 0xFF	; 255
								case P1EDIT:
								{
									while(1)
									{
										_delay_ms(DELAY_IN_LOOP);
										switch(MatchCommand(rec_bufferglob))
     576:	21 ee       	ldi	r18, 0xE1	; 225
     578:	84 e0       	ldi	r24, 0x04	; 4
     57a:	b1 50       	subi	r27, 0x01	; 1
     57c:	20 40       	sbci	r18, 0x00	; 0
     57e:	80 40       	sbci	r24, 0x00	; 0
     580:	e1 f7       	brne	.-8      	; 0x57a <__LOCK_REGION_LENGTH__+0x17a>
     582:	00 c0       	rjmp	.+0      	; 0x584 <__LOCK_REGION_LENGTH__+0x184>
     584:	00 00       	nop
     586:	89 e5       	ldi	r24, 0x59	; 89
     588:	95 e0       	ldi	r25, 0x05	; 5
     58a:	c2 d3       	rcall	.+1924   	; 0xd10 <MatchCommand>
     58c:	90 e0       	ldi	r25, 0x00	; 0
     58e:	fc 01       	movw	r30, r24
     590:	37 97       	sbiw	r30, 0x07	; 7
     592:	eb 30       	cpi	r30, 0x0B	; 11
     594:	f1 05       	cpc	r31, r1
										{
											case REG_START_BLO_TIME:
											{
												StartBlowerTimeSelected(P4_REG_A_START_BLOWER_TIME_ADD);
     596:	f0 f4       	brcc	.+60     	; 0x5d4 <__LOCK_REGION_LENGTH__+0x1d4>
     598:	88 27       	eor	r24, r24
												break;
     59a:	ed 56       	subi	r30, 0x6D	; 109
											}
											
											case REG_END_BLO_TIME:
											{
												EndBlowerTimeSelected(P4_REG_A_END_BLOWER_TIME_ADD);
     59c:	ff 4f       	sbci	r31, 0xFF	; 255
     59e:	8f 4f       	sbci	r24, 0xFF	; 255
												break;
     5a0:	19 c7       	rjmp	.+3634   	; 0x13d4 <__tablejump2__>
											}
											
											case REGA:
											{
												ReagentSelected(P4_REG_A_QTY_ADD, P4_REG_A_WAIT_TIME_ADD);
     5a2:	88 e4       	ldi	r24, 0x48	; 72
     5a4:	b8 d5       	rcall	.+2928   	; 0x1116 <StartBlowerTimeSelected>
     5a6:	16 c0       	rjmp	.+44     	; 0x5d4 <__LOCK_REGION_LENGTH__+0x1d4>
												break;
     5a8:	8a e4       	ldi	r24, 0x4A	; 74
											}
											
											case REGB:
											{
												ReagentSelected(P4_REG_B_QTY_ADD, P4_REG_B_WAIT_TIME_ADD);
     5aa:	fe d5       	rcall	.+3068   	; 0x11a8 <EndBlowerTimeSelected>
     5ac:	13 c0       	rjmp	.+38     	; 0x5d4 <__LOCK_REGION_LENGTH__+0x1d4>
     5ae:	6e e4       	ldi	r22, 0x4E	; 78
     5b0:	8c e4       	ldi	r24, 0x4C	; 76
												break;
     5b2:	14 d5       	rcall	.+2600   	; 0xfdc <ReagentSelected>
											}
											
											case REGC:
											{
												ReagentSelected(P4_REG_C_QTY_ADD, P4_REG_C_WAIT_TIME_ADD);
     5b4:	0f c0       	rjmp	.+30     	; 0x5d4 <__LOCK_REGION_LENGTH__+0x1d4>
     5b6:	62 e5       	ldi	r22, 0x52	; 82
     5b8:	80 e5       	ldi	r24, 0x50	; 80
												break;
     5ba:	10 d5       	rcall	.+2592   	; 0xfdc <ReagentSelected>
											}
											
											case REGD:
											{
												ReagentSelected(P4_REG_D_QTY_ADD, P4_REG_D_WAIT_TIME_ADD);
     5bc:	0b c0       	rjmp	.+22     	; 0x5d4 <__LOCK_REGION_LENGTH__+0x1d4>
     5be:	66 e5       	ldi	r22, 0x56	; 86
     5c0:	84 e5       	ldi	r24, 0x54	; 84
     5c2:	0c d5       	rcall	.+2584   	; 0xfdc <ReagentSelected>
												break;
     5c4:	07 c0       	rjmp	.+14     	; 0x5d4 <__LOCK_REGION_LENGTH__+0x1d4>
											}
											case REGE:
											{
												ReagentSelected(P4_REG_E_QTY_ADD, P4_REG_E_WAIT_TIME_ADD);
     5c6:	6a e5       	ldi	r22, 0x5A	; 90
     5c8:	88 e5       	ldi	r24, 0x58	; 88
     5ca:	08 d5       	rcall	.+2576   	; 0xfdc <ReagentSelected>
     5cc:	03 c0       	rjmp	.+6      	; 0x5d4 <__LOCK_REGION_LENGTH__+0x1d4>
												break;
											}
											
										}
										
										if (MatchCommand(rec_bufferglob)==BACK)
     5ce:	6e e5       	ldi	r22, 0x5E	; 94
     5d0:	8c e5       	ldi	r24, 0x5C	; 92
     5d2:	04 d5       	rcall	.+2568   	; 0xfdc <ReagentSelected>
     5d4:	89 e5       	ldi	r24, 0x59	; 89
     5d6:	95 e0       	ldi	r25, 0x05	; 5
										{
											memset(rec_bufferglob, '\0', PACKET_SIZE * sizeof(rec_bufferglob[0]));	// rec_bufferglob clear
     5d8:	9b d3       	rcall	.+1846   	; 0xd10 <MatchCommand>
     5da:	84 36       	cpi	r24, 0x64	; 100
     5dc:	59 f6       	brne	.-106    	; 0x574 <__LOCK_REGION_LENGTH__+0x174>
     5de:	e9 e5       	ldi	r30, 0x59	; 89
     5e0:	f5 e0       	ldi	r31, 0x05	; 5
     5e2:	df 01       	movw	r26, r30
									break;
								}
								
							}
							
							if (MatchCommand(rec_bufferglob)==BACK)
     5e4:	2c 2f       	mov	r18, r28
     5e6:	1d 92       	st	X+, r1
     5e8:	2a 95       	dec	r18
     5ea:	e9 f7       	brne	.-6      	; 0x5e6 <__LOCK_REGION_LENGTH__+0x1e6>
     5ec:	89 e5       	ldi	r24, 0x59	; 89
     5ee:	95 e0       	ldi	r25, 0x05	; 5
							{
								memset(rec_bufferglob, '\0', PACKET_SIZE * sizeof(rec_bufferglob[0]));	// rec_bufferglob clear
     5f0:	8f d3       	rcall	.+1822   	; 0xd10 <MatchCommand>
     5f2:	84 36       	cpi	r24, 0x64	; 100
     5f4:	09 f0       	breq	.+2      	; 0x5f8 <__LOCK_REGION_LENGTH__+0x1f8>
     5f6:	a9 cf       	rjmp	.-174    	; 0x54a <__LOCK_REGION_LENGTH__+0x14a>
     5f8:	e9 e5       	ldi	r30, 0x59	; 89
								break;
							}
						}
						break;
     5fa:	f5 e0       	ldi	r31, 0x05	; 5
     5fc:	df 01       	movw	r26, r30
     5fe:	2c 2f       	mov	r18, r28
     600:	1d 92       	st	X+, r1
     602:	2a 95       	dec	r18
     604:	e9 f7       	brne	.-6      	; 0x600 <__LOCK_REGION_LENGTH__+0x200>
     606:	de cd       	rjmp	.-1092   	; 0x1c4 <main+0x46>
     608:	8f ef       	ldi	r24, 0xFF	; 255
     60a:	91 ee       	ldi	r25, 0xE1	; 225
			case SERVICE:
				{
					while(1)
					{
						_delay_ms(DELAY_IN_LOOP);
						SpinTimeSelected(SPIN_TIME_ADD);
     60c:	a4 e0       	ldi	r26, 0x04	; 4
     60e:	81 50       	subi	r24, 0x01	; 1
     610:	90 40       	sbci	r25, 0x00	; 0
						break;
					}
					break;
     612:	a0 40       	sbci	r26, 0x00	; 0
				}
				
			case TESTBENCH:
				{
					GPIO_WriteToPin(&Reagent_D_pump, HIGH);
     614:	e1 f7       	brne	.-8      	; 0x60e <__LOCK_REGION_LENGTH__+0x20e>
     616:	00 c0       	rjmp	.+0      	; 0x618 <__LOCK_REGION_LENGTH__+0x218>
     618:	00 00       	nop
     61a:	80 e6       	ldi	r24, 0x60	; 96
					USART2_transmitstring("\ntestbench");
     61c:	0e d6       	rcall	.+3100   	; 0x123a <SpinTimeSelected>
     61e:	d2 cd       	rjmp	.-1116   	; 0x1c4 <main+0x46>
     620:	61 e0       	ldi	r22, 0x01	; 1
					memset(rec_bufferglob, '\0', PACKET_SIZE * sizeof(rec_bufferglob[0]));	// rec_bufferglob clear
     622:	87 e1       	ldi	r24, 0x17	; 23
     624:	95 e0       	ldi	r25, 0x05	; 5
     626:	e6 d2       	rcall	.+1484   	; 0xbf4 <GPIO_WriteToPin>
     628:	8b e0       	ldi	r24, 0x0B	; 11
     62a:	93 e0       	ldi	r25, 0x03	; 3
     62c:	4c d3       	rcall	.+1688   	; 0xcc6 <USART2_transmitstring>
					while(1)
					{
						USART2_transmitstring("\nrecbuff = ");
     62e:	e9 e5       	ldi	r30, 0x59	; 89
     630:	f5 e0       	ldi	r31, 0x05	; 5
     632:	df 01       	movw	r26, r30
						USART2_transmitstring(rec_bufferglob);
     634:	2c 2f       	mov	r18, r28
     636:	1d 92       	st	X+, r1
     638:	2a 95       	dec	r18
     63a:	e9 f7       	brne	.-6      	; 0x636 <__LOCK_REGION_LENGTH__+0x236>
     63c:	86 e1       	ldi	r24, 0x16	; 22
     63e:	93 e0       	ldi	r25, 0x03	; 3
     640:	42 d3       	rcall	.+1668   	; 0xcc6 <USART2_transmitstring>
     642:	89 e5       	ldi	r24, 0x59	; 89
     644:	95 e0       	ldi	r25, 0x05	; 5
     646:	3f d3       	rcall	.+1662   	; 0xcc6 <USART2_transmitstring>
     648:	8f ef       	ldi	r24, 0xFF	; 255
						_delay_ms(200);
						if (!strcmp(rec_bufferglob, "motorA_ON"))
     64a:	93 ec       	ldi	r25, 0xC3	; 195
     64c:	a9 e0       	ldi	r26, 0x09	; 9
     64e:	81 50       	subi	r24, 0x01	; 1
     650:	90 40       	sbci	r25, 0x00	; 0
     652:	a0 40       	sbci	r26, 0x00	; 0
     654:	e1 f7       	brne	.-8      	; 0x64e <__LOCK_REGION_LENGTH__+0x24e>
							GPIO_WriteToPin(&Reagent_A_pump, HIGH);
     656:	00 c0       	rjmp	.+0      	; 0x658 <__LOCK_REGION_LENGTH__+0x258>
     658:	00 00       	nop
     65a:	62 e2       	ldi	r22, 0x22	; 34
     65c:	73 e0       	ldi	r23, 0x03	; 3
						if (!strcmp(rec_bufferglob, "motorA_OFF"))
     65e:	89 e5       	ldi	r24, 0x59	; 89
     660:	95 e0       	ldi	r25, 0x05	; 5
     662:	ce d6       	rcall	.+3484   	; 0x1400 <strcmp>
     664:	89 2b       	or	r24, r25
     666:	21 f4       	brne	.+8      	; 0x670 <__LOCK_REGION_LENGTH__+0x270>
     668:	61 e0       	ldi	r22, 0x01	; 1
     66a:	8f e8       	ldi	r24, 0x8F	; 143
							GPIO_WriteToPin(&Reagent_A_pump, LOW);
     66c:	94 e0       	ldi	r25, 0x04	; 4
     66e:	c2 d2       	rcall	.+1412   	; 0xbf4 <GPIO_WriteToPin>
     670:	6c e2       	ldi	r22, 0x2C	; 44
     672:	73 e0       	ldi	r23, 0x03	; 3
						
						if (!strcmp(rec_bufferglob, "motorB_ON"))
     674:	89 e5       	ldi	r24, 0x59	; 89
     676:	95 e0       	ldi	r25, 0x05	; 5
     678:	c3 d6       	rcall	.+3462   	; 0x1400 <strcmp>
     67a:	89 2b       	or	r24, r25
     67c:	21 f4       	brne	.+8      	; 0x686 <__LOCK_REGION_LENGTH__+0x286>
     67e:	60 e0       	ldi	r22, 0x00	; 0
     680:	8f e8       	ldi	r24, 0x8F	; 143
							GPIO_WriteToPin(&Reagent_B_pump, HIGH);
     682:	94 e0       	ldi	r25, 0x04	; 4
     684:	b7 d2       	rcall	.+1390   	; 0xbf4 <GPIO_WriteToPin>
     686:	67 e3       	ldi	r22, 0x37	; 55
     688:	73 e0       	ldi	r23, 0x03	; 3
						if (!strcmp(rec_bufferglob, "motorB_OFF"))
     68a:	89 e5       	ldi	r24, 0x59	; 89
     68c:	95 e0       	ldi	r25, 0x05	; 5
     68e:	b8 d6       	rcall	.+3440   	; 0x1400 <strcmp>
     690:	89 2b       	or	r24, r25
     692:	21 f4       	brne	.+8      	; 0x69c <__LOCK_REGION_LENGTH__+0x29c>
     694:	61 e0       	ldi	r22, 0x01	; 1
							GPIO_WriteToPin(&Reagent_B_pump, LOW);
     696:	8d ec       	ldi	r24, 0xCD	; 205
     698:	94 e0       	ldi	r25, 0x04	; 4
     69a:	ac d2       	rcall	.+1368   	; 0xbf4 <GPIO_WriteToPin>
     69c:	61 e4       	ldi	r22, 0x41	; 65
						
						if (!strcmp(rec_bufferglob, "motorC_ON"))
     69e:	73 e0       	ldi	r23, 0x03	; 3
     6a0:	89 e5       	ldi	r24, 0x59	; 89
     6a2:	95 e0       	ldi	r25, 0x05	; 5
     6a4:	ad d6       	rcall	.+3418   	; 0x1400 <strcmp>
     6a6:	89 2b       	or	r24, r25
     6a8:	21 f4       	brne	.+8      	; 0x6b2 <__LOCK_REGION_LENGTH__+0x2b2>
     6aa:	60 e0       	ldi	r22, 0x00	; 0
							GPIO_WriteToPin(&Reagent_C_pump, HIGH);
     6ac:	8d ec       	ldi	r24, 0xCD	; 205
     6ae:	94 e0       	ldi	r25, 0x04	; 4
     6b0:	a1 d2       	rcall	.+1346   	; 0xbf4 <GPIO_WriteToPin>
     6b2:	6c e4       	ldi	r22, 0x4C	; 76
						if (!strcmp(rec_bufferglob, "motorC_OFF"))
     6b4:	73 e0       	ldi	r23, 0x03	; 3
     6b6:	89 e5       	ldi	r24, 0x59	; 89
     6b8:	95 e0       	ldi	r25, 0x05	; 5
     6ba:	a2 d6       	rcall	.+3396   	; 0x1400 <strcmp>
     6bc:	89 2b       	or	r24, r25
     6be:	21 f4       	brne	.+8      	; 0x6c8 <__LOCK_REGION_LENGTH__+0x2c8>
     6c0:	61 e0       	ldi	r22, 0x01	; 1
							GPIO_WriteToPin(&Reagent_C_pump, LOW);
     6c2:	8f e1       	ldi	r24, 0x1F	; 31
     6c4:	95 e0       	ldi	r25, 0x05	; 5
     6c6:	96 d2       	rcall	.+1324   	; 0xbf4 <GPIO_WriteToPin>
     6c8:	66 e5       	ldi	r22, 0x56	; 86
     6ca:	73 e0       	ldi	r23, 0x03	; 3
						
						if (!strcmp(rec_bufferglob, "motorD_ON"))
     6cc:	89 e5       	ldi	r24, 0x59	; 89
     6ce:	95 e0       	ldi	r25, 0x05	; 5
     6d0:	97 d6       	rcall	.+3374   	; 0x1400 <strcmp>
     6d2:	89 2b       	or	r24, r25
     6d4:	21 f4       	brne	.+8      	; 0x6de <__LOCK_REGION_LENGTH__+0x2de>
     6d6:	60 e0       	ldi	r22, 0x00	; 0
							GPIO_WriteToPin(&Reagent_D_pump, HIGH);
     6d8:	8f e1       	ldi	r24, 0x1F	; 31
     6da:	95 e0       	ldi	r25, 0x05	; 5
     6dc:	8b d2       	rcall	.+1302   	; 0xbf4 <GPIO_WriteToPin>
     6de:	61 e6       	ldi	r22, 0x61	; 97
						if (!strcmp(rec_bufferglob, "motorD_OFF"))
     6e0:	73 e0       	ldi	r23, 0x03	; 3
     6e2:	89 e5       	ldi	r24, 0x59	; 89
     6e4:	95 e0       	ldi	r25, 0x05	; 5
     6e6:	8c d6       	rcall	.+3352   	; 0x1400 <strcmp>
     6e8:	89 2b       	or	r24, r25
     6ea:	21 f4       	brne	.+8      	; 0x6f4 <__LOCK_REGION_LENGTH__+0x2f4>
     6ec:	61 e0       	ldi	r22, 0x01	; 1
							GPIO_WriteToPin(&Reagent_D_pump, LOW);
     6ee:	87 e1       	ldi	r24, 0x17	; 23
     6f0:	95 e0       	ldi	r25, 0x05	; 5
     6f2:	80 d2       	rcall	.+1280   	; 0xbf4 <GPIO_WriteToPin>
     6f4:	6b e6       	ldi	r22, 0x6B	; 107
						
						if (!strcmp(rec_bufferglob, "motorE_ON"))
     6f6:	73 e0       	ldi	r23, 0x03	; 3
     6f8:	89 e5       	ldi	r24, 0x59	; 89
     6fa:	95 e0       	ldi	r25, 0x05	; 5
     6fc:	81 d6       	rcall	.+3330   	; 0x1400 <strcmp>
     6fe:	89 2b       	or	r24, r25
     700:	21 f4       	brne	.+8      	; 0x70a <__LOCK_REGION_LENGTH__+0x30a>
     702:	60 e0       	ldi	r22, 0x00	; 0
     704:	87 e1       	ldi	r24, 0x17	; 23
							GPIO_WriteToPin(&Reagent_E_pump, HIGH);
     706:	95 e0       	ldi	r25, 0x05	; 5
     708:	75 d2       	rcall	.+1258   	; 0xbf4 <GPIO_WriteToPin>
     70a:	66 e7       	ldi	r22, 0x76	; 118
     70c:	73 e0       	ldi	r23, 0x03	; 3
     70e:	89 e5       	ldi	r24, 0x59	; 89
						if (!strcmp(rec_bufferglob, "motorE_OFF"))
     710:	95 e0       	ldi	r25, 0x05	; 5
     712:	76 d6       	rcall	.+3308   	; 0x1400 <strcmp>
     714:	89 2b       	or	r24, r25
     716:	21 f4       	brne	.+8      	; 0x720 <__LOCK_REGION_LENGTH__+0x320>
     718:	61 e0       	ldi	r22, 0x01	; 1
     71a:	89 ed       	ldi	r24, 0xD9	; 217
     71c:	94 e0       	ldi	r25, 0x04	; 4
     71e:	6a d2       	rcall	.+1236   	; 0xbf4 <GPIO_WriteToPin>
							GPIO_WriteToPin(&Reagent_E_pump, LOW);
     720:	60 e8       	ldi	r22, 0x80	; 128
     722:	73 e0       	ldi	r23, 0x03	; 3
     724:	89 e5       	ldi	r24, 0x59	; 89
     726:	95 e0       	ldi	r25, 0x05	; 5
     728:	6b d6       	rcall	.+3286   	; 0x1400 <strcmp>
					
						if (!strcmp(rec_bufferglob, "motorDRAIN_ON"))
     72a:	89 2b       	or	r24, r25
     72c:	21 f4       	brne	.+8      	; 0x736 <__LOCK_REGION_LENGTH__+0x336>
     72e:	60 e0       	ldi	r22, 0x00	; 0
     730:	89 ed       	ldi	r24, 0xD9	; 217
     732:	94 e0       	ldi	r25, 0x04	; 4
     734:	5f d2       	rcall	.+1214   	; 0xbf4 <GPIO_WriteToPin>
     736:	6b e8       	ldi	r22, 0x8B	; 139
     738:	73 e0       	ldi	r23, 0x03	; 3
							GPIO_WriteToPin(&Drain_pump, HIGH);
     73a:	89 e5       	ldi	r24, 0x59	; 89
     73c:	95 e0       	ldi	r25, 0x05	; 5
     73e:	60 d6       	rcall	.+3264   	; 0x1400 <strcmp>
     740:	89 2b       	or	r24, r25
     742:	21 f4       	brne	.+8      	; 0x74c <__LOCK_REGION_LENGTH__+0x34c>
						if (!strcmp(rec_bufferglob, "motorDRAIN_OFF"))
     744:	61 e0       	ldi	r22, 0x01	; 1
     746:	8b e1       	ldi	r24, 0x1B	; 27
     748:	95 e0       	ldi	r25, 0x05	; 5
     74a:	54 d2       	rcall	.+1192   	; 0xbf4 <GPIO_WriteToPin>
     74c:	69 e9       	ldi	r22, 0x99	; 153
     74e:	73 e0       	ldi	r23, 0x03	; 3
     750:	89 e5       	ldi	r24, 0x59	; 89
     752:	95 e0       	ldi	r25, 0x05	; 5
							GPIO_WriteToPin(&Drain_pump, LOW);
     754:	55 d6       	rcall	.+3242   	; 0x1400 <strcmp>
     756:	89 2b       	or	r24, r25
     758:	21 f4       	brne	.+8      	; 0x762 <__LOCK_REGION_LENGTH__+0x362>
     75a:	60 e0       	ldi	r22, 0x00	; 0
     75c:	8b e1       	ldi	r24, 0x1B	; 27
					
						if (!strcmp(rec_bufferglob, "FAN_ON"))
     75e:	95 e0       	ldi	r25, 0x05	; 5
     760:	49 d2       	rcall	.+1170   	; 0xbf4 <GPIO_WriteToPin>
     762:	68 ea       	ldi	r22, 0xA8	; 168
     764:	73 e0       	ldi	r23, 0x03	; 3
     766:	89 e5       	ldi	r24, 0x59	; 89
     768:	95 e0       	ldi	r25, 0x05	; 5
     76a:	4a d6       	rcall	.+3220   	; 0x1400 <strcmp>
     76c:	89 2b       	or	r24, r25
							GPIO_WriteToPin(&Fan, HIGH);
     76e:	21 f4       	brne	.+8      	; 0x778 <__LOCK_REGION_LENGTH__+0x378>
     770:	61 e0       	ldi	r22, 0x01	; 1
     772:	83 e2       	ldi	r24, 0x23	; 35
     774:	95 e0       	ldi	r25, 0x05	; 5
     776:	3e d2       	rcall	.+1148   	; 0xbf4 <GPIO_WriteToPin>
						if (!strcmp(rec_bufferglob, "FAN_OFF"))
     778:	6f ea       	ldi	r22, 0xAF	; 175
     77a:	73 e0       	ldi	r23, 0x03	; 3
     77c:	89 e5       	ldi	r24, 0x59	; 89
     77e:	95 e0       	ldi	r25, 0x05	; 5
     780:	3f d6       	rcall	.+3198   	; 0x1400 <strcmp>
     782:	89 2b       	or	r24, r25
     784:	21 f4       	brne	.+8      	; 0x78e <__LOCK_REGION_LENGTH__+0x38e>
     786:	60 e0       	ldi	r22, 0x00	; 0
							GPIO_WriteToPin(&Fan, LOW);
     788:	83 e2       	ldi	r24, 0x23	; 35
     78a:	95 e0       	ldi	r25, 0x05	; 5
     78c:	33 d2       	rcall	.+1126   	; 0xbf4 <GPIO_WriteToPin>
     78e:	67 eb       	ldi	r22, 0xB7	; 183
     790:	73 e0       	ldi	r23, 0x03	; 3
					
						if (!strcmp(rec_bufferglob, "BLOWER_ON"))
     792:	89 e5       	ldi	r24, 0x59	; 89
     794:	95 e0       	ldi	r25, 0x05	; 5
     796:	34 d6       	rcall	.+3176   	; 0x1400 <strcmp>
     798:	89 2b       	or	r24, r25
     79a:	21 f4       	brne	.+8      	; 0x7a4 <__LOCK_REGION_LENGTH__+0x3a4>
     79c:	61 e0       	ldi	r22, 0x01	; 1
     79e:	81 ed       	ldi	r24, 0xD1	; 209
     7a0:	94 e0       	ldi	r25, 0x04	; 4
							GPIO_WriteToPin(&Blower, HIGH);
     7a2:	28 d2       	rcall	.+1104   	; 0xbf4 <GPIO_WriteToPin>
     7a4:	61 ec       	ldi	r22, 0xC1	; 193
     7a6:	73 e0       	ldi	r23, 0x03	; 3
     7a8:	89 e5       	ldi	r24, 0x59	; 89
     7aa:	95 e0       	ldi	r25, 0x05	; 5
						if (!strcmp(rec_bufferglob, "BLOWER_OFF"))
     7ac:	29 d6       	rcall	.+3154   	; 0x1400 <strcmp>
     7ae:	89 2b       	or	r24, r25
     7b0:	21 f4       	brne	.+8      	; 0x7ba <__LOCK_REGION_LENGTH__+0x3ba>
     7b2:	60 e0       	ldi	r22, 0x00	; 0
     7b4:	81 ed       	ldi	r24, 0xD1	; 209
     7b6:	94 e0       	ldi	r25, 0x04	; 4
     7b8:	1d d2       	rcall	.+1082   	; 0xbf4 <GPIO_WriteToPin>
     7ba:	89 e5       	ldi	r24, 0x59	; 89
							GPIO_WriteToPin(&Blower, LOW);
     7bc:	95 e0       	ldi	r25, 0x05	; 5
     7be:	a8 d2       	rcall	.+1360   	; 0xd10 <MatchCommand>
     7c0:	84 36       	cpi	r24, 0x64	; 100
     7c2:	09 f0       	breq	.+2      	; 0x7c6 <__LOCK_REGION_LENGTH__+0x3c6>
     7c4:	3b cf       	rjmp	.-394    	; 0x63c <__LOCK_REGION_LENGTH__+0x23c>
					
					
						if (MatchCommand(rec_bufferglob)==BACK)
     7c6:	e9 e5       	ldi	r30, 0x59	; 89
     7c8:	f5 e0       	ldi	r31, 0x05	; 5
     7ca:	df 01       	movw	r26, r30
     7cc:	2c 2f       	mov	r18, r28
     7ce:	1d 92       	st	X+, r1
     7d0:	2a 95       	dec	r18
     7d2:	e9 f7       	brne	.-6      	; 0x7ce <__LOCK_REGION_LENGTH__+0x3ce>
						{
							memset(rec_bufferglob, '\0', PACKET_SIZE * sizeof(rec_bufferglob[0]));	// rec_bufferglob clear
     7d4:	f7 cc       	rjmp	.-1554   	; 0x1c4 <main+0x46>

000007d6 <__vector_51>:
     7d6:	1f 92       	push	r1
     7d8:	0f 92       	push	r0
     7da:	0f b6       	in	r0, 0x3f	; 63
     7dc:	0f 92       	push	r0
     7de:	11 24       	eor	r1, r1
     7e0:	0b b6       	in	r0, 0x3b	; 59
							break;
						}
						//memset(rec_bufferglob, '\0', PACKET_SIZE * sizeof(rec_bufferglob[0]));	// rec_bufferglob clear
					}
					break;
     7e2:	0f 92       	push	r0
}



ISR(USART2_RX_vect)
{
     7e4:	2f 93       	push	r18
     7e6:	3f 93       	push	r19
     7e8:	4f 93       	push	r20
     7ea:	5f 93       	push	r21
     7ec:	6f 93       	push	r22
     7ee:	7f 93       	push	r23
     7f0:	8f 93       	push	r24
     7f2:	9f 93       	push	r25
     7f4:	af 93       	push	r26
     7f6:	bf 93       	push	r27
     7f8:	cf 93       	push	r28
     7fa:	ef 93       	push	r30
     7fc:	ff 93       	push	r31
	unsigned char rec = USART2_Receive();
     7fe:	53 d2       	rcall	.+1190   	; 0xca6 <USART2_Receive>
     800:	c8 2f       	mov	r28, r24
	USART2_Transmit(rec);
     802:	49 d2       	rcall	.+1170   	; 0xc96 <USART2_Transmit>
     804:	cc 33       	cpi	r28, 0x3C	; 60
	//USART0_Transmit(rec);
	if ( (rec == '<') && (rec_start == 0)) // new packet receiving
     806:	c1 f4       	brne	.+48     	; 0x838 <__vector_51+0x62>
     808:	80 91 8c 04 	lds	r24, 0x048C	; 0x80048c <rec_start>
     80c:	81 11       	cpse	r24, r1
     80e:	16 c0       	rjmp	.+44     	; 0x83c <__vector_51+0x66>
     810:	10 92 8e 04 	sts	0x048E, r1	; 0x80048e <myindex>
	{
		myindex = 0;
     814:	81 e0       	ldi	r24, 0x01	; 1
		rec_start = 1;
     816:	80 93 8c 04 	sts	0x048C, r24	; 0x80048c <rec_start>
     81a:	82 e3       	ldi	r24, 0x32	; 50
		memset(rec_buff, '\0', PACKET_SIZE * sizeof(rec_buff[0]));		// rec_buff clear
     81c:	e7 e9       	ldi	r30, 0x97	; 151
     81e:	f4 e0       	ldi	r31, 0x04	; 4
     820:	df 01       	movw	r26, r30
     822:	98 2f       	mov	r25, r24
     824:	1d 92       	st	X+, r1
     826:	9a 95       	dec	r25
     828:	e9 f7       	brne	.-6      	; 0x824 <__vector_51+0x4e>
     82a:	e9 e5       	ldi	r30, 0x59	; 89
		memset(rec_bufferglob, '\0', PACKET_SIZE * sizeof(rec_bufferglob[0]));	// rec_bufferglob clear
     82c:	f5 e0       	ldi	r31, 0x05	; 5
     82e:	df 01       	movw	r26, r30
     830:	1d 92       	st	X+, r1
     832:	8a 95       	dec	r24
     834:	e9 f7       	brne	.-6      	; 0x830 <__vector_51+0x5a>
     836:	28 c0       	rjmp	.+80     	; 0x888 <__vector_51+0xb2>
     838:	ce 33       	cpi	r28, 0x3E	; 62
	}
	
	else if ( ( rec != '>') && (rec_start == 1)  )				// collecting data in buffer
     83a:	11 f1       	breq	.+68     	; 0x880 <__vector_51+0xaa>
     83c:	80 91 8c 04 	lds	r24, 0x048C	; 0x80048c <rec_start>
     840:	81 30       	cpi	r24, 0x01	; 1
     842:	11 f5       	brne	.+68     	; 0x888 <__vector_51+0xb2>
     844:	e0 91 8e 04 	lds	r30, 0x048E	; 0x80048e <myindex>
	{
		rec_buff[myindex] = rec;
     848:	f0 e0       	ldi	r31, 0x00	; 0
     84a:	e9 56       	subi	r30, 0x69	; 105
     84c:	fb 4f       	sbci	r31, 0xFB	; 251
     84e:	c0 83       	st	Z, r28
     850:	80 91 8e 04 	lds	r24, 0x048E	; 0x80048e <myindex>
		myindex++;
     854:	8f 5f       	subi	r24, 0xFF	; 255
     856:	80 93 8e 04 	sts	0x048E, r24	; 0x80048e <myindex>
     85a:	16 c0       	rjmp	.+44     	; 0x888 <__vector_51+0xb2>
     85c:	67 e9       	ldi	r22, 0x97	; 151
		
	}
	
	if ( (rec == '>' ) && (rec_start == 1) )					// ending character received
	{
		strcpy(rec_bufferglob, rec_buff);						// copy data into rec_bufferglob
     85e:	74 e0       	ldi	r23, 0x04	; 4
     860:	89 e5       	ldi	r24, 0x59	; 89
     862:	95 e0       	ldi	r25, 0x05	; 5
     864:	d6 d5       	rcall	.+2988   	; 0x1412 <strcpy>
     866:	81 e0       	ldi	r24, 0x01	; 1
		rec_stop = 1;											// rec_stop flag 1
     868:	80 93 8d 04 	sts	0x048D, r24	; 0x80048d <rec_stop>
     86c:	10 92 8c 04 	sts	0x048C, r1	; 0x80048c <rec_start>
		rec_start = 0;											// clear flag
     870:	82 e3       	ldi	r24, 0x32	; 50
		memset(rec_buff, '\0', PACKET_SIZE * sizeof(rec_buff[0]));		// clearing rec_buff so that it can receive new data
     872:	e7 e9       	ldi	r30, 0x97	; 151
     874:	f4 e0       	ldi	r31, 0x04	; 4
     876:	df 01       	movw	r26, r30
     878:	1d 92       	st	X+, r1
     87a:	8a 95       	dec	r24
     87c:	e9 f7       	brne	.-6      	; 0x878 <__vector_51+0xa2>
     87e:	04 c0       	rjmp	.+8      	; 0x888 <__vector_51+0xb2>
		
	}
}
     880:	80 91 8c 04 	lds	r24, 0x048C	; 0x80048c <rec_start>
		myindex++;
		//rec = '\0';
		
	}
	
	if ( (rec == '>' ) && (rec_start == 1) )					// ending character received
     884:	81 30       	cpi	r24, 0x01	; 1
     886:	51 f3       	breq	.-44     	; 0x85c <__vector_51+0x86>
     888:	ff 91       	pop	r31
		rec_stop = 1;											// rec_stop flag 1
		rec_start = 0;											// clear flag
		memset(rec_buff, '\0', PACKET_SIZE * sizeof(rec_buff[0]));		// clearing rec_buff so that it can receive new data
		
	}
}
     88a:	ef 91       	pop	r30
     88c:	cf 91       	pop	r28
     88e:	bf 91       	pop	r27
     890:	af 91       	pop	r26
     892:	9f 91       	pop	r25
     894:	8f 91       	pop	r24
     896:	7f 91       	pop	r23
     898:	6f 91       	pop	r22
     89a:	5f 91       	pop	r21
     89c:	4f 91       	pop	r20
     89e:	3f 91       	pop	r19
     8a0:	2f 91       	pop	r18
     8a2:	0f 90       	pop	r0
     8a4:	0b be       	out	0x3b, r0	; 59
     8a6:	0f 90       	pop	r0
     8a8:	0f be       	out	0x3f, r0	; 63
     8aa:	0f 90       	pop	r0
     8ac:	1f 90       	pop	r1
     8ae:	18 95       	reti

000008b0 <__vector_25>:
     8b0:	1f 92       	push	r1



ISR(USART0_RX_vect)
{
     8b2:	0f 92       	push	r0
     8b4:	0f b6       	in	r0, 0x3f	; 63
     8b6:	0f 92       	push	r0
     8b8:	11 24       	eor	r1, r1
     8ba:	0b b6       	in	r0, 0x3b	; 59
     8bc:	0f 92       	push	r0
     8be:	2f 93       	push	r18
     8c0:	3f 93       	push	r19
     8c2:	4f 93       	push	r20
     8c4:	5f 93       	push	r21
     8c6:	6f 93       	push	r22
     8c8:	7f 93       	push	r23
     8ca:	8f 93       	push	r24
     8cc:	9f 93       	push	r25
     8ce:	af 93       	push	r26
     8d0:	bf 93       	push	r27
     8d2:	cf 93       	push	r28
     8d4:	ef 93       	push	r30
     8d6:	ff 93       	push	r31
	unsigned char rec = USART0_Receive();
     8d8:	ee d1       	rcall	.+988    	; 0xcb6 <USART0_Receive>
     8da:	c8 2f       	mov	r28, r24
	USART2_Transmit(rec);
     8dc:	dc d1       	rcall	.+952    	; 0xc96 <USART2_Transmit>
     8de:	cc 33       	cpi	r28, 0x3C	; 60
	//USART0_Transmit(rec);
	if ( (rec == '<') && (rec_start == 0)) // new packet
     8e0:	c1 f4       	brne	.+48     	; 0x912 <__vector_25+0x62>
     8e2:	80 91 8c 04 	lds	r24, 0x048C	; 0x80048c <rec_start>
     8e6:	81 11       	cpse	r24, r1
     8e8:	16 c0       	rjmp	.+44     	; 0x916 <__vector_25+0x66>
     8ea:	10 92 8e 04 	sts	0x048E, r1	; 0x80048e <myindex>
	{
		myindex = 0;
     8ee:	81 e0       	ldi	r24, 0x01	; 1
		rec_start = 1;
     8f0:	80 93 8c 04 	sts	0x048C, r24	; 0x80048c <rec_start>
     8f4:	82 e3       	ldi	r24, 0x32	; 50
		memset(rec_buff, '\0', PACKET_SIZE * sizeof(rec_buff[0]));
     8f6:	e7 e9       	ldi	r30, 0x97	; 151
     8f8:	f4 e0       	ldi	r31, 0x04	; 4
     8fa:	df 01       	movw	r26, r30
     8fc:	98 2f       	mov	r25, r24
     8fe:	1d 92       	st	X+, r1
     900:	9a 95       	dec	r25
     902:	e9 f7       	brne	.-6      	; 0x8fe <__vector_25+0x4e>
     904:	e9 e5       	ldi	r30, 0x59	; 89
		memset(rec_bufferglob, '\0', PACKET_SIZE * sizeof(rec_bufferglob[0]));
     906:	f5 e0       	ldi	r31, 0x05	; 5
     908:	df 01       	movw	r26, r30
     90a:	1d 92       	st	X+, r1
     90c:	8a 95       	dec	r24
     90e:	e9 f7       	brne	.-6      	; 0x90a <__vector_25+0x5a>
     910:	23 c0       	rjmp	.+70     	; 0x958 <__vector_25+0xa8>
     912:	ce 33       	cpi	r28, 0x3E	; 62
	}
	
	else if ( ( rec != '>') && (rec_start == 1)  )	// collecting data in buffer
     914:	51 f1       	breq	.+84     	; 0x96a <__vector_25+0xba>
     916:	80 91 8c 04 	lds	r24, 0x048C	; 0x80048c <rec_start>
     91a:	81 30       	cpi	r24, 0x01	; 1
     91c:	e9 f4       	brne	.+58     	; 0x958 <__vector_25+0xa8>
     91e:	e0 91 8e 04 	lds	r30, 0x048E	; 0x80048e <myindex>
	{
		rec_buff[myindex] = rec;
     922:	f0 e0       	ldi	r31, 0x00	; 0
     924:	e9 56       	subi	r30, 0x69	; 105
     926:	fb 4f       	sbci	r31, 0xFB	; 251
     928:	c0 83       	st	Z, r28
     92a:	80 91 8e 04 	lds	r24, 0x048E	; 0x80048e <myindex>
		myindex++;
     92e:	8f 5f       	subi	r24, 0xFF	; 255
     930:	80 93 8e 04 	sts	0x048E, r24	; 0x80048e <myindex>
     934:	11 c0       	rjmp	.+34     	; 0x958 <__vector_25+0xa8>
     936:	67 e9       	ldi	r22, 0x97	; 151
		
	}
	
	if ( (rec == '>' ) && (rec_start == 1) )
	{
		strcpy(rec_bufferglob, rec_buff);
     938:	74 e0       	ldi	r23, 0x04	; 4
     93a:	89 e5       	ldi	r24, 0x59	; 89
     93c:	95 e0       	ldi	r25, 0x05	; 5
     93e:	69 d5       	rcall	.+2770   	; 0x1412 <strcpy>
     940:	81 e0       	ldi	r24, 0x01	; 1
		//USART2_transmitstring(rec_bufferglob);
		rec_stop = 1;
     942:	80 93 8d 04 	sts	0x048D, r24	; 0x80048d <rec_stop>
     946:	10 92 8c 04 	sts	0x048C, r1	; 0x80048c <rec_start>
		rec_start = 0;
     94a:	82 e3       	ldi	r24, 0x32	; 50
		memset(rec_buff, '\0', PACKET_SIZE * sizeof(rec_buff[0]));
     94c:	e7 e9       	ldi	r30, 0x97	; 151
     94e:	f4 e0       	ldi	r31, 0x04	; 4
     950:	df 01       	movw	r26, r30
     952:	1d 92       	st	X+, r1
     954:	8a 95       	dec	r24
     956:	e9 f7       	brne	.-6      	; 0x952 <__vector_25+0xa2>
     958:	80 91 8e 04 	lds	r24, 0x048E	; 0x80048e <myindex>
		
	}
	if(myindex > (PACKET_SIZE -1 ))
     95c:	82 33       	cpi	r24, 0x32	; 50
     95e:	50 f0       	brcs	.+20     	; 0x974 <__vector_25+0xc4>
     960:	10 92 8e 04 	sts	0x048E, r1	; 0x80048e <myindex>
	{
		myindex = 0;
     964:	10 92 8c 04 	sts	0x048C, r1	; 0x80048c <rec_start>
		rec_start = 0;
     968:	05 c0       	rjmp	.+10     	; 0x974 <__vector_25+0xc4>
	}
}
     96a:	80 91 8c 04 	lds	r24, 0x048C	; 0x80048c <rec_start>
		myindex++;
		//rec = '\0';
		
	}
	
	if ( (rec == '>' ) && (rec_start == 1) )
     96e:	81 30       	cpi	r24, 0x01	; 1
     970:	99 f7       	brne	.-26     	; 0x958 <__vector_25+0xa8>
     972:	e1 cf       	rjmp	.-62     	; 0x936 <__vector_25+0x86>
     974:	ff 91       	pop	r31
	if(myindex > (PACKET_SIZE -1 ))
	{
		myindex = 0;
		rec_start = 0;
	}
}
     976:	ef 91       	pop	r30
     978:	cf 91       	pop	r28
     97a:	bf 91       	pop	r27
     97c:	af 91       	pop	r26
     97e:	9f 91       	pop	r25
     980:	8f 91       	pop	r24
     982:	7f 91       	pop	r23
     984:	6f 91       	pop	r22
     986:	5f 91       	pop	r21
     988:	4f 91       	pop	r20
     98a:	3f 91       	pop	r19
     98c:	2f 91       	pop	r18
     98e:	0f 90       	pop	r0
     990:	0b be       	out	0x3b, r0	; 59
     992:	0f 90       	pop	r0
     994:	0f be       	out	0x3f, r0	; 63
     996:	0f 90       	pop	r0
     998:	1f 90       	pop	r1
     99a:	18 95       	reti

0000099c <__vector_20>:
     99c:	1f 92       	push	r1
	TCCR1B = (5<<0);	// prescaler 1024
	
}
*/
ISR(TIMER1_OVF_vect)
{
     99e:	0f 92       	push	r0
     9a0:	0f b6       	in	r0, 0x3f	; 63
     9a2:	0f 92       	push	r0
     9a4:	11 24       	eor	r1, r1
     9a6:	0b b6       	in	r0, 0x3b	; 59
     9a8:	0f 92       	push	r0
     9aa:	2f 93       	push	r18
     9ac:	3f 93       	push	r19
     9ae:	4f 93       	push	r20
     9b0:	5f 93       	push	r21
     9b2:	6f 93       	push	r22
     9b4:	7f 93       	push	r23
     9b6:	8f 93       	push	r24
     9b8:	9f 93       	push	r25
     9ba:	af 93       	push	r26
     9bc:	bf 93       	push	r27
     9be:	ef 93       	push	r30
     9c0:	ff 93       	push	r31
	time_in_seconds++;
     9c2:	80 91 88 04 	lds	r24, 0x0488	; 0x800488 <time_in_seconds>
     9c6:	90 91 89 04 	lds	r25, 0x0489	; 0x800489 <time_in_seconds+0x1>
     9ca:	01 96       	adiw	r24, 0x01	; 1
     9cc:	90 93 89 04 	sts	0x0489, r25	; 0x800489 <time_in_seconds+0x1>
     9d0:	80 93 88 04 	sts	0x0488, r24	; 0x800488 <time_in_seconds>
	itoa(time_in_seconds, buffer, 10);
     9d4:	80 91 88 04 	lds	r24, 0x0488	; 0x800488 <time_in_seconds>
     9d8:	90 91 89 04 	lds	r25, 0x0489	; 0x800489 <time_in_seconds+0x1>
    } else if (__radix < 2 || __radix > 36) {
	*__s = 0;
	return __s;
    } else {
	extern char *__itoa_ncheck (int, char *, unsigned char);
	return __itoa_ncheck (__val, __s, __radix);
     9dc:	4a e0       	ldi	r20, 0x0A	; 10
     9de:	65 ee       	ldi	r22, 0xE5	; 229
     9e0:	74 e0       	ldi	r23, 0x04	; 4
     9e2:	45 d5       	rcall	.+2698   	; 0x146e <__itoa_ncheck>
	USART2_transmitstring("\ntime in seconds = ");
     9e4:	8c ec       	ldi	r24, 0xCC	; 204
     9e6:	93 e0       	ldi	r25, 0x03	; 3
     9e8:	6e d1       	rcall	.+732    	; 0xcc6 <USART2_transmitstring>
	USART2_transmitstring(buffer);
     9ea:	85 ee       	ldi	r24, 0xE5	; 229
     9ec:	94 e0       	ldi	r25, 0x04	; 4
     9ee:	6b d1       	rcall	.+726    	; 0xcc6 <USART2_transmitstring>
	memset(buffer, '\0', PACKET_SIZE * sizeof(buffer[0]));	// rec_bufferglob clear
     9f0:	82 e3       	ldi	r24, 0x32	; 50
     9f2:	e5 ee       	ldi	r30, 0xE5	; 229
     9f4:	f4 e0       	ldi	r31, 0x04	; 4
     9f6:	df 01       	movw	r26, r30
     9f8:	1d 92       	st	X+, r1
     9fa:	8a 95       	dec	r24
     9fc:	e9 f7       	brne	.-6      	; 0x9f8 <__vector_20+0x5c>
	TCNT1 =0xC2F7;	// This value will generate 1 Sec delay for prescaler 1024 and 16 mhz crystel
     9fe:	87 ef       	ldi	r24, 0xF7	; 247
     a00:	92 ec       	ldi	r25, 0xC2	; 194
     a02:	90 93 85 00 	sts	0x0085, r25	; 0x800085 <__TEXT_REGION_LENGTH__+0x700085>
     a06:	80 93 84 00 	sts	0x0084, r24	; 0x800084 <__TEXT_REGION_LENGTH__+0x700084>
	TCCR1B = (5<<0);	// prescaler 1024
     a0a:	85 e0       	ldi	r24, 0x05	; 5
     a0c:	80 93 81 00 	sts	0x0081, r24	; 0x800081 <__TEXT_REGION_LENGTH__+0x700081>
	
}
     a10:	ff 91       	pop	r31
     a12:	ef 91       	pop	r30
     a14:	bf 91       	pop	r27
     a16:	af 91       	pop	r26
     a18:	9f 91       	pop	r25
     a1a:	8f 91       	pop	r24
     a1c:	7f 91       	pop	r23
     a1e:	6f 91       	pop	r22
     a20:	5f 91       	pop	r21
     a22:	4f 91       	pop	r20
     a24:	3f 91       	pop	r19
     a26:	2f 91       	pop	r18
     a28:	0f 90       	pop	r0
     a2a:	0b be       	out	0x3b, r0	; 59
     a2c:	0f 90       	pop	r0
     a2e:	0f be       	out	0x3f, r0	; 63
     a30:	0f 90       	pop	r0
     a32:	1f 90       	pop	r1
     a34:	18 95       	reti

00000a36 <EEPROM_write>:
	;
}

void my_delay_ms(uint32_t ms)
{
	while (0 < ms--)
     a36:	f8 94       	cli
     a38:	f9 99       	sbic	0x1f, 1	; 31
     a3a:	fe cf       	rjmp	.-4      	; 0xa38 <EEPROM_write+0x2>
     a3c:	92 bd       	out	0x22, r25	; 34
     a3e:	81 bd       	out	0x21, r24	; 33
     a40:	60 bd       	out	0x20, r22	; 32
     a42:	fa 9a       	sbi	0x1f, 2	; 31
     a44:	f9 9a       	sbi	0x1f, 1	; 31
     a46:	78 94       	sei
     a48:	08 95       	ret

00000a4a <EEPROM_read>:
     a4a:	f9 99       	sbic	0x1f, 1	; 31
     a4c:	fe cf       	rjmp	.-4      	; 0xa4a <EEPROM_read>
     a4e:	92 bd       	out	0x22, r25	; 34
     a50:	81 bd       	out	0x21, r24	; 33
     a52:	f8 9a       	sbi	0x1f, 0	; 31
     a54:	80 b5       	in	r24, 0x20	; 32
     a56:	08 95       	ret

00000a58 <EEPROM_Write2Bytes>:
     a58:	1f 93       	push	r17
     a5a:	cf 93       	push	r28
     a5c:	df 93       	push	r29
     a5e:	ec 01       	movw	r28, r24
     a60:	17 2f       	mov	r17, r23
     a62:	f8 94       	cli
     a64:	e8 df       	rcall	.-48     	; 0xa36 <EEPROM_write>
     a66:	61 2f       	mov	r22, r17
     a68:	ce 01       	movw	r24, r28
     a6a:	01 96       	adiw	r24, 0x01	; 1
     a6c:	e4 df       	rcall	.-56     	; 0xa36 <EEPROM_write>
     a6e:	78 94       	sei
     a70:	df 91       	pop	r29
     a72:	cf 91       	pop	r28
     a74:	1f 91       	pop	r17
     a76:	08 95       	ret

00000a78 <EEPROM_Read2Bytes>:
     a78:	0f 93       	push	r16
     a7a:	1f 93       	push	r17
     a7c:	cf 93       	push	r28
     a7e:	8c 01       	movw	r16, r24
     a80:	e4 df       	rcall	.-56     	; 0xa4a <EEPROM_read>
     a82:	c8 2f       	mov	r28, r24
     a84:	c8 01       	movw	r24, r16
     a86:	01 96       	adiw	r24, 0x01	; 1
     a88:	e0 df       	rcall	.-64     	; 0xa4a <EEPROM_read>
     a8a:	2c 2f       	mov	r18, r28
     a8c:	30 e0       	ldi	r19, 0x00	; 0
     a8e:	a9 01       	movw	r20, r18
     a90:	58 2b       	or	r21, r24
     a92:	ca 01       	movw	r24, r20
     a94:	cf 91       	pop	r28
     a96:	1f 91       	pop	r17
     a98:	0f 91       	pop	r16
     a9a:	08 95       	ret

00000a9c <GPIO_Init>:
     a9c:	fc 01       	movw	r30, r24
     a9e:	83 81       	ldd	r24, Z+3	; 0x03
     aa0:	81 11       	cpse	r24, r1
     aa2:	11 c0       	rjmp	.+34     	; 0xac6 <GPIO_Init+0x2a>
     aa4:	30 81       	ld	r19, Z
     aa6:	01 80       	ldd	r0, Z+1	; 0x01
     aa8:	f2 81       	ldd	r31, Z+2	; 0x02
     aaa:	e0 2d       	mov	r30, r0
     aac:	22 91       	ld	r18, -Z
     aae:	81 e0       	ldi	r24, 0x01	; 1
     ab0:	90 e0       	ldi	r25, 0x00	; 0
     ab2:	02 c0       	rjmp	.+4      	; 0xab8 <GPIO_Init+0x1c>
     ab4:	88 0f       	add	r24, r24
     ab6:	99 1f       	adc	r25, r25
     ab8:	3a 95       	dec	r19
     aba:	e2 f7       	brpl	.-8      	; 0xab4 <GPIO_Init+0x18>
     abc:	80 95       	com	r24
     abe:	90 95       	com	r25
     ac0:	82 23       	and	r24, r18
     ac2:	80 83       	st	Z, r24
     ac4:	08 95       	ret
     ac6:	30 81       	ld	r19, Z
     ac8:	01 80       	ldd	r0, Z+1	; 0x01
     aca:	f2 81       	ldd	r31, Z+2	; 0x02
     acc:	e0 2d       	mov	r30, r0
     ace:	22 91       	ld	r18, -Z
     ad0:	81 e0       	ldi	r24, 0x01	; 1
     ad2:	90 e0       	ldi	r25, 0x00	; 0
     ad4:	02 c0       	rjmp	.+4      	; 0xada <GPIO_Init+0x3e>
     ad6:	88 0f       	add	r24, r24
     ad8:	99 1f       	adc	r25, r25
     ada:	3a 95       	dec	r19
     adc:	e2 f7       	brpl	.-8      	; 0xad6 <GPIO_Init+0x3a>
     ade:	82 2b       	or	r24, r18
     ae0:	80 83       	st	Z, r24
     ae2:	08 95       	ret

00000ae4 <GpioPinInit>:
     ae4:	e1 ee       	ldi	r30, 0xE1	; 225
     ae6:	f4 e0       	ldi	r31, 0x04	; 4
     ae8:	81 e0       	ldi	r24, 0x01	; 1
     aea:	83 83       	std	Z+3, r24	; 0x03
     aec:	80 83       	st	Z, r24
     aee:	22 e0       	ldi	r18, 0x02	; 2
     af0:	31 e0       	ldi	r19, 0x01	; 1
     af2:	32 83       	std	Z+2, r19	; 0x02
     af4:	21 83       	std	Z+1, r18	; 0x01
     af6:	e5 ed       	ldi	r30, 0xD5	; 213
     af8:	f4 e0       	ldi	r31, 0x04	; 4
     afa:	13 82       	std	Z+3, r1	; 0x03
     afc:	10 82       	st	Z, r1
     afe:	32 83       	std	Z+2, r19	; 0x02
     b00:	21 83       	std	Z+1, r18	; 0x01
     b02:	ed ed       	ldi	r30, 0xDD	; 221
     b04:	f4 e0       	ldi	r31, 0x04	; 4
     b06:	83 83       	std	Z+3, r24	; 0x03
     b08:	10 82       	st	Z, r1
     b0a:	44 e3       	ldi	r20, 0x34	; 52
     b0c:	50 e0       	ldi	r21, 0x00	; 0
     b0e:	52 83       	std	Z+2, r21	; 0x02
     b10:	41 83       	std	Z+1, r20	; 0x01
     b12:	e9 ec       	ldi	r30, 0xC9	; 201
     b14:	f4 e0       	ldi	r31, 0x04	; 4
     b16:	83 83       	std	Z+3, r24	; 0x03
     b18:	10 82       	st	Z, r1
     b1a:	48 e2       	ldi	r20, 0x28	; 40
     b1c:	50 e0       	ldi	r21, 0x00	; 0
     b1e:	52 83       	std	Z+2, r21	; 0x02
     b20:	41 83       	std	Z+1, r20	; 0x01
     b22:	ef e8       	ldi	r30, 0x8F	; 143
     b24:	f4 e0       	ldi	r31, 0x04	; 4
     b26:	83 83       	std	Z+3, r24	; 0x03
     b28:	96 e0       	ldi	r25, 0x06	; 6
     b2a:	90 83       	st	Z, r25
     b2c:	45 e2       	ldi	r20, 0x25	; 37
     b2e:	50 e0       	ldi	r21, 0x00	; 0
     b30:	52 83       	std	Z+2, r21	; 0x02
     b32:	41 83       	std	Z+1, r20	; 0x01
     b34:	ed ec       	ldi	r30, 0xCD	; 205
     b36:	f4 e0       	ldi	r31, 0x04	; 4
     b38:	83 83       	std	Z+3, r24	; 0x03
     b3a:	95 e0       	ldi	r25, 0x05	; 5
     b3c:	90 83       	st	Z, r25
     b3e:	52 83       	std	Z+2, r21	; 0x02
     b40:	41 83       	std	Z+1, r20	; 0x01
     b42:	ef e1       	ldi	r30, 0x1F	; 31
     b44:	f5 e0       	ldi	r31, 0x05	; 5
     b46:	83 83       	std	Z+3, r24	; 0x03
     b48:	64 e0       	ldi	r22, 0x04	; 4
     b4a:	60 83       	st	Z, r22
     b4c:	52 83       	std	Z+2, r21	; 0x02
     b4e:	41 83       	std	Z+1, r20	; 0x01
     b50:	e7 e1       	ldi	r30, 0x17	; 23
     b52:	f5 e0       	ldi	r31, 0x05	; 5
     b54:	83 83       	std	Z+3, r24	; 0x03
     b56:	90 83       	st	Z, r25
     b58:	32 83       	std	Z+2, r19	; 0x02
     b5a:	21 83       	std	Z+1, r18	; 0x01
     b5c:	e9 ed       	ldi	r30, 0xD9	; 217
     b5e:	f4 e0       	ldi	r31, 0x04	; 4
     b60:	83 83       	std	Z+3, r24	; 0x03
     b62:	60 83       	st	Z, r22
     b64:	32 83       	std	Z+2, r19	; 0x02
     b66:	21 83       	std	Z+1, r18	; 0x01
     b68:	eb e1       	ldi	r30, 0x1B	; 27
     b6a:	f5 e0       	ldi	r31, 0x05	; 5
     b6c:	83 83       	std	Z+3, r24	; 0x03
     b6e:	43 e0       	ldi	r20, 0x03	; 3
     b70:	40 83       	st	Z, r20
     b72:	32 83       	std	Z+2, r19	; 0x02
     b74:	21 83       	std	Z+1, r18	; 0x01
     b76:	e3 e9       	ldi	r30, 0x93	; 147
     b78:	f4 e0       	ldi	r31, 0x04	; 4
     b7a:	83 83       	std	Z+3, r24	; 0x03
     b7c:	27 e0       	ldi	r18, 0x07	; 7
     b7e:	20 83       	st	Z, r18
     b80:	2b e2       	ldi	r18, 0x2B	; 43
     b82:	30 e0       	ldi	r19, 0x00	; 0
     b84:	32 83       	std	Z+2, r19	; 0x02
     b86:	21 83       	std	Z+1, r18	; 0x01
     b88:	e1 ed       	ldi	r30, 0xD1	; 209
     b8a:	f4 e0       	ldi	r31, 0x04	; 4
     b8c:	83 83       	std	Z+3, r24	; 0x03
     b8e:	40 83       	st	Z, r20
     b90:	2b e0       	ldi	r18, 0x0B	; 11
     b92:	31 e0       	ldi	r19, 0x01	; 1
     b94:	32 83       	std	Z+2, r19	; 0x02
     b96:	21 83       	std	Z+1, r18	; 0x01
     b98:	e3 e2       	ldi	r30, 0x23	; 35
     b9a:	f5 e0       	ldi	r31, 0x05	; 5
     b9c:	83 83       	std	Z+3, r24	; 0x03
     b9e:	90 83       	st	Z, r25
     ba0:	32 83       	std	Z+2, r19	; 0x02
     ba2:	21 83       	std	Z+1, r18	; 0x01
     ba4:	85 ed       	ldi	r24, 0xD5	; 213
     ba6:	94 e0       	ldi	r25, 0x04	; 4
     ba8:	79 df       	rcall	.-270    	; 0xa9c <GPIO_Init>
     baa:	81 ee       	ldi	r24, 0xE1	; 225
     bac:	94 e0       	ldi	r25, 0x04	; 4
     bae:	76 df       	rcall	.-276    	; 0xa9c <GPIO_Init>
     bb0:	8d ed       	ldi	r24, 0xDD	; 221
     bb2:	94 e0       	ldi	r25, 0x04	; 4
     bb4:	73 df       	rcall	.-282    	; 0xa9c <GPIO_Init>
     bb6:	89 ec       	ldi	r24, 0xC9	; 201
     bb8:	94 e0       	ldi	r25, 0x04	; 4
     bba:	70 df       	rcall	.-288    	; 0xa9c <GPIO_Init>
     bbc:	8f e8       	ldi	r24, 0x8F	; 143
     bbe:	94 e0       	ldi	r25, 0x04	; 4
     bc0:	6d df       	rcall	.-294    	; 0xa9c <GPIO_Init>
     bc2:	8d ec       	ldi	r24, 0xCD	; 205
     bc4:	94 e0       	ldi	r25, 0x04	; 4
     bc6:	6a df       	rcall	.-300    	; 0xa9c <GPIO_Init>
     bc8:	8f e1       	ldi	r24, 0x1F	; 31
     bca:	95 e0       	ldi	r25, 0x05	; 5
     bcc:	67 df       	rcall	.-306    	; 0xa9c <GPIO_Init>
     bce:	87 e1       	ldi	r24, 0x17	; 23
     bd0:	95 e0       	ldi	r25, 0x05	; 5
     bd2:	64 df       	rcall	.-312    	; 0xa9c <GPIO_Init>
     bd4:	89 ed       	ldi	r24, 0xD9	; 217
     bd6:	94 e0       	ldi	r25, 0x04	; 4
     bd8:	61 df       	rcall	.-318    	; 0xa9c <GPIO_Init>
     bda:	8b e1       	ldi	r24, 0x1B	; 27
     bdc:	95 e0       	ldi	r25, 0x05	; 5
     bde:	5e df       	rcall	.-324    	; 0xa9c <GPIO_Init>
     be0:	83 e9       	ldi	r24, 0x93	; 147
     be2:	94 e0       	ldi	r25, 0x04	; 4
     be4:	5b df       	rcall	.-330    	; 0xa9c <GPIO_Init>
     be6:	81 ed       	ldi	r24, 0xD1	; 209
     be8:	94 e0       	ldi	r25, 0x04	; 4
     bea:	58 df       	rcall	.-336    	; 0xa9c <GPIO_Init>
     bec:	83 e2       	ldi	r24, 0x23	; 35
     bee:	95 e0       	ldi	r25, 0x05	; 5
     bf0:	55 cf       	rjmp	.-342    	; 0xa9c <GPIO_Init>
     bf2:	08 95       	ret

00000bf4 <GPIO_WriteToPin>:
     bf4:	61 30       	cpi	r22, 0x01	; 1
     bf6:	89 f4       	brne	.+34     	; 0xc1a <GPIO_WriteToPin+0x26>
     bf8:	dc 01       	movw	r26, r24
     bfa:	3c 91       	ld	r19, X
     bfc:	11 96       	adiw	r26, 0x01	; 1
     bfe:	ed 91       	ld	r30, X+
     c00:	fc 91       	ld	r31, X
     c02:	12 97       	sbiw	r26, 0x02	; 2
     c04:	20 81       	ld	r18, Z
     c06:	81 e0       	ldi	r24, 0x01	; 1
     c08:	90 e0       	ldi	r25, 0x00	; 0
     c0a:	02 c0       	rjmp	.+4      	; 0xc10 <GPIO_WriteToPin+0x1c>
     c0c:	88 0f       	add	r24, r24
     c0e:	99 1f       	adc	r25, r25
     c10:	3a 95       	dec	r19
     c12:	e2 f7       	brpl	.-8      	; 0xc0c <GPIO_WriteToPin+0x18>
     c14:	82 2b       	or	r24, r18
     c16:	80 83       	st	Z, r24
     c18:	08 95       	ret
     c1a:	fc 01       	movw	r30, r24
     c1c:	30 81       	ld	r19, Z
     c1e:	01 80       	ldd	r0, Z+1	; 0x01
     c20:	f2 81       	ldd	r31, Z+2	; 0x02
     c22:	e0 2d       	mov	r30, r0
     c24:	20 81       	ld	r18, Z
     c26:	81 e0       	ldi	r24, 0x01	; 1
     c28:	90 e0       	ldi	r25, 0x00	; 0
     c2a:	02 c0       	rjmp	.+4      	; 0xc30 <GPIO_WriteToPin+0x3c>
     c2c:	88 0f       	add	r24, r24
     c2e:	99 1f       	adc	r25, r25
     c30:	3a 95       	dec	r19
     c32:	e2 f7       	brpl	.-8      	; 0xc2c <GPIO_WriteToPin+0x38>
     c34:	80 95       	com	r24
     c36:	90 95       	com	r25
     c38:	82 23       	and	r24, r18
     c3a:	80 83       	st	Z, r24
     c3c:	08 95       	ret

00000c3e <USART0_Init>:
     c3e:	90 93 c5 00 	sts	0x00C5, r25	; 0x8000c5 <__TEXT_REGION_LENGTH__+0x7000c5>
     c42:	80 93 c4 00 	sts	0x00C4, r24	; 0x8000c4 <__TEXT_REGION_LENGTH__+0x7000c4>
     c46:	88 e9       	ldi	r24, 0x98	; 152
     c48:	80 93 c1 00 	sts	0x00C1, r24	; 0x8000c1 <__TEXT_REGION_LENGTH__+0x7000c1>
     c4c:	86 e0       	ldi	r24, 0x06	; 6
     c4e:	80 93 c2 00 	sts	0x00C2, r24	; 0x8000c2 <__TEXT_REGION_LENGTH__+0x7000c2>
     c52:	08 95       	ret

00000c54 <USART0_Transmit>:
     c54:	e0 ec       	ldi	r30, 0xC0	; 192
     c56:	f0 e0       	ldi	r31, 0x00	; 0
     c58:	90 81       	ld	r25, Z
     c5a:	95 ff       	sbrs	r25, 5
     c5c:	fd cf       	rjmp	.-6      	; 0xc58 <USART0_Transmit+0x4>
     c5e:	80 93 c6 00 	sts	0x00C6, r24	; 0x8000c6 <__TEXT_REGION_LENGTH__+0x7000c6>
     c62:	08 95       	ret

00000c64 <USART0_transmitstring>:
     c64:	cf 93       	push	r28
     c66:	df 93       	push	r29
     c68:	ec 01       	movw	r28, r24
     c6a:	88 81       	ld	r24, Y
     c6c:	88 23       	and	r24, r24
     c6e:	29 f0       	breq	.+10     	; 0xc7a <USART0_transmitstring+0x16>
     c70:	21 96       	adiw	r28, 0x01	; 1
     c72:	f0 df       	rcall	.-32     	; 0xc54 <USART0_Transmit>
     c74:	89 91       	ld	r24, Y+
     c76:	81 11       	cpse	r24, r1
     c78:	fc cf       	rjmp	.-8      	; 0xc72 <USART0_transmitstring+0xe>
     c7a:	df 91       	pop	r29
     c7c:	cf 91       	pop	r28
     c7e:	08 95       	ret

00000c80 <USART2_Init>:
     c80:	90 93 d5 00 	sts	0x00D5, r25	; 0x8000d5 <__TEXT_REGION_LENGTH__+0x7000d5>
     c84:	80 93 d4 00 	sts	0x00D4, r24	; 0x8000d4 <__TEXT_REGION_LENGTH__+0x7000d4>
     c88:	88 e9       	ldi	r24, 0x98	; 152
     c8a:	80 93 d1 00 	sts	0x00D1, r24	; 0x8000d1 <__TEXT_REGION_LENGTH__+0x7000d1>
     c8e:	86 e0       	ldi	r24, 0x06	; 6
     c90:	80 93 d2 00 	sts	0x00D2, r24	; 0x8000d2 <__TEXT_REGION_LENGTH__+0x7000d2>
     c94:	08 95       	ret

00000c96 <USART2_Transmit>:
     c96:	e0 ed       	ldi	r30, 0xD0	; 208
     c98:	f0 e0       	ldi	r31, 0x00	; 0
     c9a:	90 81       	ld	r25, Z
     c9c:	95 ff       	sbrs	r25, 5
     c9e:	fd cf       	rjmp	.-6      	; 0xc9a <USART2_Transmit+0x4>
     ca0:	80 93 d6 00 	sts	0x00D6, r24	; 0x8000d6 <__TEXT_REGION_LENGTH__+0x7000d6>
     ca4:	08 95       	ret

00000ca6 <USART2_Receive>:
     ca6:	e0 ed       	ldi	r30, 0xD0	; 208
     ca8:	f0 e0       	ldi	r31, 0x00	; 0
     caa:	80 81       	ld	r24, Z
     cac:	88 23       	and	r24, r24
     cae:	ec f7       	brge	.-6      	; 0xcaa <USART2_Receive+0x4>
     cb0:	80 91 d6 00 	lds	r24, 0x00D6	; 0x8000d6 <__TEXT_REGION_LENGTH__+0x7000d6>
     cb4:	08 95       	ret

00000cb6 <USART0_Receive>:
     cb6:	e0 ec       	ldi	r30, 0xC0	; 192
     cb8:	f0 e0       	ldi	r31, 0x00	; 0
     cba:	80 81       	ld	r24, Z
     cbc:	88 23       	and	r24, r24
     cbe:	ec f7       	brge	.-6      	; 0xcba <USART0_Receive+0x4>
     cc0:	80 91 c6 00 	lds	r24, 0x00C6	; 0x8000c6 <__TEXT_REGION_LENGTH__+0x7000c6>
     cc4:	08 95       	ret

00000cc6 <USART2_transmitstring>:
     cc6:	cf 93       	push	r28
     cc8:	df 93       	push	r29
     cca:	ec 01       	movw	r28, r24
     ccc:	88 81       	ld	r24, Y
     cce:	88 23       	and	r24, r24
     cd0:	29 f0       	breq	.+10     	; 0xcdc <USART2_transmitstring+0x16>
     cd2:	21 96       	adiw	r28, 0x01	; 1
     cd4:	e0 df       	rcall	.-64     	; 0xc96 <USART2_Transmit>
     cd6:	89 91       	ld	r24, Y+
     cd8:	81 11       	cpse	r24, r1
     cda:	fc cf       	rjmp	.-8      	; 0xcd4 <USART2_transmitstring+0xe>
     cdc:	df 91       	pop	r29
     cde:	cf 91       	pop	r28
     ce0:	08 95       	ret

00000ce2 <Timer1_init>:
     ce2:	10 92 80 00 	sts	0x0080, r1	; 0x800080 <__TEXT_REGION_LENGTH__+0x700080>
     ce6:	10 92 82 00 	sts	0x0082, r1	; 0x800082 <__TEXT_REGION_LENGTH__+0x700082>
     cea:	87 ef       	ldi	r24, 0xF7	; 247
     cec:	92 ec       	ldi	r25, 0xC2	; 194
     cee:	90 93 85 00 	sts	0x0085, r25	; 0x800085 <__TEXT_REGION_LENGTH__+0x700085>
     cf2:	80 93 84 00 	sts	0x0084, r24	; 0x800084 <__TEXT_REGION_LENGTH__+0x700084>
     cf6:	85 e0       	ldi	r24, 0x05	; 5
     cf8:	80 93 81 00 	sts	0x0081, r24	; 0x800081 <__TEXT_REGION_LENGTH__+0x700081>
     cfc:	ef e6       	ldi	r30, 0x6F	; 111
     cfe:	f0 e0       	ldi	r31, 0x00	; 0
     d00:	80 81       	ld	r24, Z
     d02:	81 60       	ori	r24, 0x01	; 1
     d04:	80 83       	st	Z, r24
     d06:	10 92 89 04 	sts	0x0489, r1	; 0x800489 <time_in_seconds+0x1>
     d0a:	10 92 88 04 	sts	0x0488, r1	; 0x800488 <time_in_seconds>
     d0e:	08 95       	ret

00000d10 <MatchCommand>:
     d10:	0f 93       	push	r16
     d12:	1f 93       	push	r17
     d14:	cf 93       	push	r28
     d16:	df 93       	push	r29
     d18:	ec 01       	movw	r28, r24
     d1a:	60 ee       	ldi	r22, 0xE0	; 224
     d1c:	73 e0       	ldi	r23, 0x03	; 3
     d1e:	62 d3       	rcall	.+1732   	; 0x13e4 <strtok>
     d20:	8c 01       	movw	r16, r24
     d22:	62 ee       	ldi	r22, 0xE2	; 226
     d24:	73 e0       	ldi	r23, 0x03	; 3
     d26:	ce 01       	movw	r24, r28
     d28:	6b d3       	rcall	.+1750   	; 0x1400 <strcmp>
     d2a:	89 2b       	or	r24, r25
     d2c:	09 f4       	brne	.+2      	; 0xd30 <MatchCommand+0x20>
     d2e:	0f c1       	rjmp	.+542    	; 0xf4e <MatchCommand+0x23e>
     d30:	6c ee       	ldi	r22, 0xEC	; 236
     d32:	73 e0       	ldi	r23, 0x03	; 3
     d34:	ce 01       	movw	r24, r28
     d36:	64 d3       	rcall	.+1736   	; 0x1400 <strcmp>
     d38:	89 2b       	or	r24, r25
     d3a:	09 f4       	brne	.+2      	; 0xd3e <MatchCommand+0x2e>
     d3c:	0a c1       	rjmp	.+532    	; 0xf52 <MatchCommand+0x242>
     d3e:	66 ef       	ldi	r22, 0xF6	; 246
     d40:	73 e0       	ldi	r23, 0x03	; 3
     d42:	ce 01       	movw	r24, r28
     d44:	5d d3       	rcall	.+1722   	; 0x1400 <strcmp>
     d46:	89 2b       	or	r24, r25
     d48:	09 f4       	brne	.+2      	; 0xd4c <MatchCommand+0x3c>
     d4a:	05 c1       	rjmp	.+522    	; 0xf56 <MatchCommand+0x246>
     d4c:	60 e0       	ldi	r22, 0x00	; 0
     d4e:	74 e0       	ldi	r23, 0x04	; 4
     d50:	ce 01       	movw	r24, r28
     d52:	56 d3       	rcall	.+1708   	; 0x1400 <strcmp>
     d54:	89 2b       	or	r24, r25
     d56:	09 f4       	brne	.+2      	; 0xd5a <MatchCommand+0x4a>
     d58:	00 c1       	rjmp	.+512    	; 0xf5a <MatchCommand+0x24a>
     d5a:	6a e0       	ldi	r22, 0x0A	; 10
     d5c:	74 e0       	ldi	r23, 0x04	; 4
     d5e:	ce 01       	movw	r24, r28
     d60:	4f d3       	rcall	.+1694   	; 0x1400 <strcmp>
     d62:	89 2b       	or	r24, r25
     d64:	09 f4       	brne	.+2      	; 0xd68 <MatchCommand+0x58>
     d66:	fb c0       	rjmp	.+502    	; 0xf5e <MatchCommand+0x24e>
     d68:	61 e1       	ldi	r22, 0x11	; 17
     d6a:	74 e0       	ldi	r23, 0x04	; 4
     d6c:	ce 01       	movw	r24, r28
     d6e:	48 d3       	rcall	.+1680   	; 0x1400 <strcmp>
     d70:	89 2b       	or	r24, r25
     d72:	09 f4       	brne	.+2      	; 0xd76 <MatchCommand+0x66>
     d74:	f6 c0       	rjmp	.+492    	; 0xf62 <MatchCommand+0x252>
     d76:	60 e0       	ldi	r22, 0x00	; 0
     d78:	73 e0       	ldi	r23, 0x03	; 3
     d7a:	ce 01       	movw	r24, r28
     d7c:	41 d3       	rcall	.+1666   	; 0x1400 <strcmp>
     d7e:	89 2b       	or	r24, r25
     d80:	09 f4       	brne	.+2      	; 0xd84 <MatchCommand+0x74>
     d82:	f1 c0       	rjmp	.+482    	; 0xf66 <MatchCommand+0x256>
     d84:	67 e1       	ldi	r22, 0x17	; 23
     d86:	74 e0       	ldi	r23, 0x04	; 4
     d88:	ce 01       	movw	r24, r28
     d8a:	3a d3       	rcall	.+1652   	; 0x1400 <strcmp>
     d8c:	89 2b       	or	r24, r25
     d8e:	09 f4       	brne	.+2      	; 0xd92 <MatchCommand+0x82>
     d90:	ec c0       	rjmp	.+472    	; 0xf6a <MatchCommand+0x25a>
     d92:	60 e2       	ldi	r22, 0x20	; 32
     d94:	74 e0       	ldi	r23, 0x04	; 4
     d96:	ce 01       	movw	r24, r28
     d98:	33 d3       	rcall	.+1638   	; 0x1400 <strcmp>
     d9a:	89 2b       	or	r24, r25
     d9c:	09 f4       	brne	.+2      	; 0xda0 <MatchCommand+0x90>
     d9e:	e7 c0       	rjmp	.+462    	; 0xf6e <MatchCommand+0x25e>
     da0:	6a e2       	ldi	r22, 0x2A	; 42
     da2:	74 e0       	ldi	r23, 0x04	; 4
     da4:	ce 01       	movw	r24, r28
     da6:	2c d3       	rcall	.+1624   	; 0x1400 <strcmp>
     da8:	89 2b       	or	r24, r25
     daa:	09 f4       	brne	.+2      	; 0xdae <MatchCommand+0x9e>
     dac:	e2 c0       	rjmp	.+452    	; 0xf72 <MatchCommand+0x262>
     dae:	6f e2       	ldi	r22, 0x2F	; 47
     db0:	74 e0       	ldi	r23, 0x04	; 4
     db2:	ce 01       	movw	r24, r28
     db4:	25 d3       	rcall	.+1610   	; 0x1400 <strcmp>
     db6:	89 2b       	or	r24, r25
     db8:	09 f4       	brne	.+2      	; 0xdbc <MatchCommand+0xac>
     dba:	dd c0       	rjmp	.+442    	; 0xf76 <MatchCommand+0x266>
     dbc:	64 e3       	ldi	r22, 0x34	; 52
     dbe:	74 e0       	ldi	r23, 0x04	; 4
     dc0:	ce 01       	movw	r24, r28
     dc2:	1e d3       	rcall	.+1596   	; 0x1400 <strcmp>
     dc4:	89 2b       	or	r24, r25
     dc6:	09 f4       	brne	.+2      	; 0xdca <MatchCommand+0xba>
     dc8:	d8 c0       	rjmp	.+432    	; 0xf7a <MatchCommand+0x26a>
     dca:	69 e3       	ldi	r22, 0x39	; 57
     dcc:	74 e0       	ldi	r23, 0x04	; 4
     dce:	ce 01       	movw	r24, r28
     dd0:	17 d3       	rcall	.+1582   	; 0x1400 <strcmp>
     dd2:	89 2b       	or	r24, r25
     dd4:	09 f4       	brne	.+2      	; 0xdd8 <MatchCommand+0xc8>
     dd6:	d3 c0       	rjmp	.+422    	; 0xf7e <MatchCommand+0x26e>
     dd8:	6e e3       	ldi	r22, 0x3E	; 62
     dda:	74 e0       	ldi	r23, 0x04	; 4
     ddc:	ce 01       	movw	r24, r28
     dde:	10 d3       	rcall	.+1568   	; 0x1400 <strcmp>
     de0:	89 2b       	or	r24, r25
     de2:	09 f4       	brne	.+2      	; 0xde6 <MatchCommand+0xd6>
     de4:	ce c0       	rjmp	.+412    	; 0xf82 <MatchCommand+0x272>
     de6:	63 e4       	ldi	r22, 0x43	; 67
     de8:	74 e0       	ldi	r23, 0x04	; 4
     dea:	ce 01       	movw	r24, r28
     dec:	09 d3       	rcall	.+1554   	; 0x1400 <strcmp>
     dee:	89 2b       	or	r24, r25
     df0:	09 f4       	brne	.+2      	; 0xdf4 <MatchCommand+0xe4>
     df2:	c9 c0       	rjmp	.+402    	; 0xf86 <MatchCommand+0x276>
     df4:	6c e0       	ldi	r22, 0x0C	; 12
     df6:	73 e0       	ldi	r23, 0x03	; 3
     df8:	ce 01       	movw	r24, r28
     dfa:	02 d3       	rcall	.+1540   	; 0x1400 <strcmp>
     dfc:	89 2b       	or	r24, r25
     dfe:	09 f4       	brne	.+2      	; 0xe02 <MatchCommand+0xf2>
     e00:	c4 c0       	rjmp	.+392    	; 0xf8a <MatchCommand+0x27a>
     e02:	6b e4       	ldi	r22, 0x4B	; 75
     e04:	74 e0       	ldi	r23, 0x04	; 4
     e06:	c8 01       	movw	r24, r16
     e08:	fb d2       	rcall	.+1526   	; 0x1400 <strcmp>
     e0a:	89 2b       	or	r24, r25
     e0c:	e1 f4       	brne	.+56     	; 0xe46 <MatchCommand+0x136>
     e0e:	60 ee       	ldi	r22, 0xE0	; 224
     e10:	73 e0       	ldi	r23, 0x03	; 3
     e12:	80 e0       	ldi	r24, 0x00	; 0
     e14:	90 e0       	ldi	r25, 0x00	; 0
     e16:	e6 d2       	rcall	.+1484   	; 0x13e4 <strtok>
     e18:	dc 01       	movw	r26, r24
     e1a:	2c 91       	ld	r18, X
     e1c:	30 e0       	ldi	r19, 0x00	; 0
     e1e:	30 93 01 02 	sts	0x0201, r19	; 0x800201 <__DATA_REGION_ORIGIN__+0x1>
     e22:	20 93 00 02 	sts	0x0200, r18	; 0x800200 <__DATA_REGION_ORIGIN__>
     e26:	11 96       	adiw	r26, 0x01	; 1
     e28:	8c 91       	ld	r24, X
     e2a:	38 2b       	or	r19, r24
     e2c:	30 93 01 02 	sts	0x0201, r19	; 0x800201 <__DATA_REGION_ORIGIN__+0x1>
     e30:	20 93 00 02 	sts	0x0200, r18	; 0x800200 <__DATA_REGION_ORIGIN__>
     e34:	82 e3       	ldi	r24, 0x32	; 50
     e36:	e9 e5       	ldi	r30, 0x59	; 89
     e38:	f5 e0       	ldi	r31, 0x05	; 5
     e3a:	df 01       	movw	r26, r30
     e3c:	1d 92       	st	X+, r1
     e3e:	8a 95       	dec	r24
     e40:	e9 f7       	brne	.-6      	; 0xe3c <MatchCommand+0x12c>
     e42:	89 e0       	ldi	r24, 0x09	; 9
     e44:	a5 c0       	rjmp	.+330    	; 0xf90 <MatchCommand+0x280>
     e46:	62 e5       	ldi	r22, 0x52	; 82
     e48:	74 e0       	ldi	r23, 0x04	; 4
     e4a:	c8 01       	movw	r24, r16
     e4c:	d9 d2       	rcall	.+1458   	; 0x1400 <strcmp>
     e4e:	89 2b       	or	r24, r25
     e50:	d9 f4       	brne	.+54     	; 0xe88 <MatchCommand+0x178>
     e52:	60 ee       	ldi	r22, 0xE0	; 224
     e54:	73 e0       	ldi	r23, 0x03	; 3
     e56:	80 e0       	ldi	r24, 0x00	; 0
     e58:	90 e0       	ldi	r25, 0x00	; 0
     e5a:	c4 d2       	rcall	.+1416   	; 0x13e4 <strtok>
     e5c:	fc 01       	movw	r30, r24
     e5e:	20 81       	ld	r18, Z
     e60:	30 e0       	ldi	r19, 0x00	; 0
     e62:	30 93 01 02 	sts	0x0201, r19	; 0x800201 <__DATA_REGION_ORIGIN__+0x1>
     e66:	20 93 00 02 	sts	0x0200, r18	; 0x800200 <__DATA_REGION_ORIGIN__>
     e6a:	81 81       	ldd	r24, Z+1	; 0x01
     e6c:	38 2b       	or	r19, r24
     e6e:	30 93 01 02 	sts	0x0201, r19	; 0x800201 <__DATA_REGION_ORIGIN__+0x1>
     e72:	20 93 00 02 	sts	0x0200, r18	; 0x800200 <__DATA_REGION_ORIGIN__>
     e76:	82 e3       	ldi	r24, 0x32	; 50
     e78:	e9 e5       	ldi	r30, 0x59	; 89
     e7a:	f5 e0       	ldi	r31, 0x05	; 5
     e7c:	df 01       	movw	r26, r30
     e7e:	1d 92       	st	X+, r1
     e80:	8a 95       	dec	r24
     e82:	e9 f7       	brne	.-6      	; 0xe7e <MatchCommand+0x16e>
     e84:	8a e0       	ldi	r24, 0x0A	; 10
     e86:	84 c0       	rjmp	.+264    	; 0xf90 <MatchCommand+0x280>
     e88:	6a e5       	ldi	r22, 0x5A	; 90
     e8a:	74 e0       	ldi	r23, 0x04	; 4
     e8c:	c8 01       	movw	r24, r16
     e8e:	b8 d2       	rcall	.+1392   	; 0x1400 <strcmp>
     e90:	89 2b       	or	r24, r25
     e92:	d9 f4       	brne	.+54     	; 0xeca <MatchCommand+0x1ba>
     e94:	60 ee       	ldi	r22, 0xE0	; 224
     e96:	73 e0       	ldi	r23, 0x03	; 3
     e98:	80 e0       	ldi	r24, 0x00	; 0
     e9a:	90 e0       	ldi	r25, 0x00	; 0
     e9c:	a3 d2       	rcall	.+1350   	; 0x13e4 <strtok>
     e9e:	fc 01       	movw	r30, r24
     ea0:	20 81       	ld	r18, Z
     ea2:	30 e0       	ldi	r19, 0x00	; 0
     ea4:	30 93 01 02 	sts	0x0201, r19	; 0x800201 <__DATA_REGION_ORIGIN__+0x1>
     ea8:	20 93 00 02 	sts	0x0200, r18	; 0x800200 <__DATA_REGION_ORIGIN__>
     eac:	81 81       	ldd	r24, Z+1	; 0x01
     eae:	38 2b       	or	r19, r24
     eb0:	30 93 01 02 	sts	0x0201, r19	; 0x800201 <__DATA_REGION_ORIGIN__+0x1>
     eb4:	20 93 00 02 	sts	0x0200, r18	; 0x800200 <__DATA_REGION_ORIGIN__>
     eb8:	82 e3       	ldi	r24, 0x32	; 50
     eba:	e9 e5       	ldi	r30, 0x59	; 89
     ebc:	f5 e0       	ldi	r31, 0x05	; 5
     ebe:	df 01       	movw	r26, r30
     ec0:	1d 92       	st	X+, r1
     ec2:	8a 95       	dec	r24
     ec4:	e9 f7       	brne	.-6      	; 0xec0 <MatchCommand+0x1b0>
     ec6:	8d e0       	ldi	r24, 0x0D	; 13
     ec8:	63 c0       	rjmp	.+198    	; 0xf90 <MatchCommand+0x280>
     eca:	63 e6       	ldi	r22, 0x63	; 99
     ecc:	74 e0       	ldi	r23, 0x04	; 4
     ece:	c8 01       	movw	r24, r16
     ed0:	97 d2       	rcall	.+1326   	; 0x1400 <strcmp>
     ed2:	89 2b       	or	r24, r25
     ed4:	d9 f4       	brne	.+54     	; 0xf0c <MatchCommand+0x1fc>
     ed6:	60 ee       	ldi	r22, 0xE0	; 224
     ed8:	73 e0       	ldi	r23, 0x03	; 3
     eda:	80 e0       	ldi	r24, 0x00	; 0
     edc:	90 e0       	ldi	r25, 0x00	; 0
     ede:	82 d2       	rcall	.+1284   	; 0x13e4 <strtok>
     ee0:	fc 01       	movw	r30, r24
     ee2:	20 81       	ld	r18, Z
     ee4:	30 e0       	ldi	r19, 0x00	; 0
     ee6:	30 93 01 02 	sts	0x0201, r19	; 0x800201 <__DATA_REGION_ORIGIN__+0x1>
     eea:	20 93 00 02 	sts	0x0200, r18	; 0x800200 <__DATA_REGION_ORIGIN__>
     eee:	81 81       	ldd	r24, Z+1	; 0x01
     ef0:	38 2b       	or	r19, r24
     ef2:	30 93 01 02 	sts	0x0201, r19	; 0x800201 <__DATA_REGION_ORIGIN__+0x1>
     ef6:	20 93 00 02 	sts	0x0200, r18	; 0x800200 <__DATA_REGION_ORIGIN__>
     efa:	82 e3       	ldi	r24, 0x32	; 50
     efc:	e9 e5       	ldi	r30, 0x59	; 89
     efe:	f5 e0       	ldi	r31, 0x05	; 5
     f00:	df 01       	movw	r26, r30
     f02:	1d 92       	st	X+, r1
     f04:	8a 95       	dec	r24
     f06:	e9 f7       	brne	.-6      	; 0xf02 <MatchCommand+0x1f2>
     f08:	88 e0       	ldi	r24, 0x08	; 8
     f0a:	42 c0       	rjmp	.+132    	; 0xf90 <MatchCommand+0x280>
     f0c:	6b e6       	ldi	r22, 0x6B	; 107
     f0e:	74 e0       	ldi	r23, 0x04	; 4
     f10:	c8 01       	movw	r24, r16
     f12:	76 d2       	rcall	.+1260   	; 0x1400 <strcmp>
     f14:	89 2b       	or	r24, r25
     f16:	d9 f5       	brne	.+118    	; 0xf8e <MatchCommand+0x27e>
     f18:	60 ee       	ldi	r22, 0xE0	; 224
     f1a:	73 e0       	ldi	r23, 0x03	; 3
     f1c:	80 e0       	ldi	r24, 0x00	; 0
     f1e:	90 e0       	ldi	r25, 0x00	; 0
     f20:	61 d2       	rcall	.+1218   	; 0x13e4 <strtok>
     f22:	fc 01       	movw	r30, r24
     f24:	20 81       	ld	r18, Z
     f26:	30 e0       	ldi	r19, 0x00	; 0
     f28:	30 93 01 02 	sts	0x0201, r19	; 0x800201 <__DATA_REGION_ORIGIN__+0x1>
     f2c:	20 93 00 02 	sts	0x0200, r18	; 0x800200 <__DATA_REGION_ORIGIN__>
     f30:	81 81       	ldd	r24, Z+1	; 0x01
     f32:	38 2b       	or	r19, r24
     f34:	30 93 01 02 	sts	0x0201, r19	; 0x800201 <__DATA_REGION_ORIGIN__+0x1>
     f38:	20 93 00 02 	sts	0x0200, r18	; 0x800200 <__DATA_REGION_ORIGIN__>
     f3c:	82 e3       	ldi	r24, 0x32	; 50
     f3e:	e9 e5       	ldi	r30, 0x59	; 89
     f40:	f5 e0       	ldi	r31, 0x05	; 5
     f42:	df 01       	movw	r26, r30
     f44:	1d 92       	st	X+, r1
     f46:	8a 95       	dec	r24
     f48:	e9 f7       	brne	.-6      	; 0xf44 <MatchCommand+0x234>
     f4a:	83 e1       	ldi	r24, 0x13	; 19
     f4c:	21 c0       	rjmp	.+66     	; 0xf90 <MatchCommand+0x280>
     f4e:	81 e0       	ldi	r24, 0x01	; 1
     f50:	1f c0       	rjmp	.+62     	; 0xf90 <MatchCommand+0x280>
     f52:	82 e0       	ldi	r24, 0x02	; 2
     f54:	1d c0       	rjmp	.+58     	; 0xf90 <MatchCommand+0x280>
     f56:	83 e0       	ldi	r24, 0x03	; 3
     f58:	1b c0       	rjmp	.+54     	; 0xf90 <MatchCommand+0x280>
     f5a:	84 e0       	ldi	r24, 0x04	; 4
     f5c:	19 c0       	rjmp	.+50     	; 0xf90 <MatchCommand+0x280>
     f5e:	85 e0       	ldi	r24, 0x05	; 5
     f60:	17 c0       	rjmp	.+46     	; 0xf90 <MatchCommand+0x280>
     f62:	86 e0       	ldi	r24, 0x06	; 6
     f64:	15 c0       	rjmp	.+42     	; 0xf90 <MatchCommand+0x280>
     f66:	84 e6       	ldi	r24, 0x64	; 100
     f68:	13 c0       	rjmp	.+38     	; 0xf90 <MatchCommand+0x280>
     f6a:	87 e0       	ldi	r24, 0x07	; 7
     f6c:	11 c0       	rjmp	.+34     	; 0xf90 <MatchCommand+0x280>
     f6e:	8b e0       	ldi	r24, 0x0B	; 11
     f70:	0f c0       	rjmp	.+30     	; 0xf90 <MatchCommand+0x280>
     f72:	8c e0       	ldi	r24, 0x0C	; 12
     f74:	0d c0       	rjmp	.+26     	; 0xf90 <MatchCommand+0x280>
     f76:	8e e0       	ldi	r24, 0x0E	; 14
     f78:	0b c0       	rjmp	.+22     	; 0xf90 <MatchCommand+0x280>
     f7a:	8f e0       	ldi	r24, 0x0F	; 15
     f7c:	09 c0       	rjmp	.+18     	; 0xf90 <MatchCommand+0x280>
     f7e:	80 e1       	ldi	r24, 0x10	; 16
     f80:	07 c0       	rjmp	.+14     	; 0xf90 <MatchCommand+0x280>
     f82:	81 e1       	ldi	r24, 0x11	; 17
     f84:	05 c0       	rjmp	.+10     	; 0xf90 <MatchCommand+0x280>
     f86:	82 e1       	ldi	r24, 0x12	; 18
     f88:	03 c0       	rjmp	.+6      	; 0xf90 <MatchCommand+0x280>
     f8a:	84 e1       	ldi	r24, 0x14	; 20
     f8c:	01 c0       	rjmp	.+2      	; 0xf90 <MatchCommand+0x280>
     f8e:	80 e0       	ldi	r24, 0x00	; 0
     f90:	df 91       	pop	r29
     f92:	cf 91       	pop	r28
     f94:	1f 91       	pop	r17
     f96:	0f 91       	pop	r16
     f98:	08 95       	ret

00000f9a <Send_FF_to_Display>:
     f9a:	8f ef       	ldi	r24, 0xFF	; 255
     f9c:	5b de       	rcall	.-842    	; 0xc54 <USART0_Transmit>
     f9e:	8f ef       	ldi	r24, 0xFF	; 255
     fa0:	59 de       	rcall	.-846    	; 0xc54 <USART0_Transmit>
     fa2:	8f ef       	ldi	r24, 0xFF	; 255
     fa4:	57 de       	rcall	.-850    	; 0xc54 <USART0_Transmit>
     fa6:	82 e3       	ldi	r24, 0x32	; 50
     fa8:	e5 ee       	ldi	r30, 0xE5	; 229
     faa:	f4 e0       	ldi	r31, 0x04	; 4
     fac:	df 01       	movw	r26, r30
     fae:	1d 92       	st	X+, r1
     fb0:	8a 95       	dec	r24
     fb2:	e9 f7       	brne	.-6      	; 0xfae <Send_FF_to_Display+0x14>
     fb4:	08 95       	ret

00000fb6 <EEPROM_DisplayDataInit>:
     fb6:	cf 93       	push	r28
     fb8:	df 93       	push	r29
     fba:	c0 e0       	ldi	r28, 0x00	; 0
     fbc:	d0 e0       	ldi	r29, 0x00	; 0
     fbe:	ce 01       	movw	r24, r28
     fc0:	5b dd       	rcall	.-1354   	; 0xa78 <EEPROM_Read2Bytes>
     fc2:	01 96       	adiw	r24, 0x01	; 1
     fc4:	21 f4       	brne	.+8      	; 0xfce <EEPROM_DisplayDataInit+0x18>
     fc6:	60 e0       	ldi	r22, 0x00	; 0
     fc8:	70 e0       	ldi	r23, 0x00	; 0
     fca:	ce 01       	movw	r24, r28
     fcc:	45 dd       	rcall	.-1398   	; 0xa58 <EEPROM_Write2Bytes>
     fce:	22 96       	adiw	r28, 0x02	; 2
     fd0:	c2 36       	cpi	r28, 0x62	; 98
     fd2:	d1 05       	cpc	r29, r1
     fd4:	a1 f7       	brne	.-24     	; 0xfbe <EEPROM_DisplayDataInit+0x8>
     fd6:	df 91       	pop	r29
     fd8:	cf 91       	pop	r28
     fda:	08 95       	ret

00000fdc <ReagentSelected>:
     fdc:	ef 92       	push	r14
     fde:	ff 92       	push	r15
     fe0:	0f 93       	push	r16
     fe2:	1f 93       	push	r17
     fe4:	cf 93       	push	r28
     fe6:	df 93       	push	r29
     fe8:	08 2f       	mov	r16, r24
     fea:	10 e0       	ldi	r17, 0x00	; 0
     fec:	0f 2e       	mov	r0, r31
     fee:	f2 e3       	ldi	r31, 0x32	; 50
     ff0:	ef 2e       	mov	r14, r31
     ff2:	f0 2d       	mov	r31, r0
     ff4:	c6 2f       	mov	r28, r22
     ff6:	d0 e0       	ldi	r29, 0x00	; 0
     ff8:	ff 24       	eor	r15, r15
     ffa:	f3 94       	inc	r15
     ffc:	2f ef       	ldi	r18, 0xFF	; 255
     ffe:	81 ee       	ldi	r24, 0xE1	; 225
    1000:	94 e0       	ldi	r25, 0x04	; 4
    1002:	21 50       	subi	r18, 0x01	; 1
    1004:	80 40       	sbci	r24, 0x00	; 0
    1006:	90 40       	sbci	r25, 0x00	; 0
    1008:	e1 f7       	brne	.-8      	; 0x1002 <ReagentSelected+0x26>
    100a:	00 c0       	rjmp	.+0      	; 0x100c <ReagentSelected+0x30>
    100c:	00 00       	nop
    100e:	90 91 8b 04 	lds	r25, 0x048B	; 0x80048b <OneTimeRunFunFlag>
    1012:	91 11       	cpse	r25, r1
    1014:	12 c0       	rjmp	.+36     	; 0x103a <ReagentSelected+0x5e>
    1016:	83 e7       	ldi	r24, 0x73	; 115
    1018:	94 e0       	ldi	r25, 0x04	; 4
    101a:	24 de       	rcall	.-952    	; 0xc64 <USART0_transmitstring>
    101c:	c8 01       	movw	r24, r16
    101e:	2c dd       	rcall	.-1448   	; 0xa78 <EEPROM_Read2Bytes>
    1020:	4a e0       	ldi	r20, 0x0A	; 10
    1022:	65 ee       	ldi	r22, 0xE5	; 229
    1024:	74 e0       	ldi	r23, 0x04	; 4
    1026:	23 d2       	rcall	.+1094   	; 0x146e <__itoa_ncheck>
    1028:	85 ee       	ldi	r24, 0xE5	; 229
    102a:	94 e0       	ldi	r25, 0x04	; 4
    102c:	1b de       	rcall	.-970    	; 0xc64 <USART0_transmitstring>
    102e:	b5 df       	rcall	.-150    	; 0xf9a <Send_FF_to_Display>
    1030:	80 91 8b 04 	lds	r24, 0x048B	; 0x80048b <OneTimeRunFunFlag>
    1034:	8f 5f       	subi	r24, 0xFF	; 255
    1036:	80 93 8b 04 	sts	0x048B, r24	; 0x80048b <OneTimeRunFunFlag>
    103a:	89 e5       	ldi	r24, 0x59	; 89
    103c:	95 e0       	ldi	r25, 0x05	; 5
    103e:	68 de       	rcall	.-816    	; 0xd10 <MatchCommand>
    1040:	88 30       	cpi	r24, 0x08	; 8
    1042:	09 f0       	breq	.+2      	; 0x1046 <ReagentSelected+0x6a>
    1044:	50 c0       	rjmp	.+160    	; 0x10e6 <ReagentSelected+0x10a>
    1046:	60 91 00 02 	lds	r22, 0x0200	; 0x800200 <__DATA_REGION_ORIGIN__>
    104a:	70 91 01 02 	lds	r23, 0x0201	; 0x800201 <__DATA_REGION_ORIGIN__+0x1>
    104e:	c8 01       	movw	r24, r16
    1050:	03 dd       	rcall	.-1530   	; 0xa58 <EEPROM_Write2Bytes>
    1052:	10 92 8b 04 	sts	0x048B, r1	; 0x80048b <OneTimeRunFunFlag>
    1056:	af ef       	ldi	r26, 0xFF	; 255
    1058:	b1 ee       	ldi	r27, 0xE1	; 225
    105a:	24 e0       	ldi	r18, 0x04	; 4
    105c:	a1 50       	subi	r26, 0x01	; 1
    105e:	b0 40       	sbci	r27, 0x00	; 0
    1060:	20 40       	sbci	r18, 0x00	; 0
    1062:	e1 f7       	brne	.-8      	; 0x105c <ReagentSelected+0x80>
    1064:	00 c0       	rjmp	.+0      	; 0x1066 <ReagentSelected+0x8a>
    1066:	00 00       	nop
    1068:	90 91 8b 04 	lds	r25, 0x048B	; 0x80048b <OneTimeRunFunFlag>
    106c:	91 11       	cpse	r25, r1
    106e:	12 c0       	rjmp	.+36     	; 0x1094 <ReagentSelected+0xb8>
    1070:	83 e7       	ldi	r24, 0x73	; 115
    1072:	94 e0       	ldi	r25, 0x04	; 4
    1074:	f7 dd       	rcall	.-1042   	; 0xc64 <USART0_transmitstring>
    1076:	ce 01       	movw	r24, r28
    1078:	ff dc       	rcall	.-1538   	; 0xa78 <EEPROM_Read2Bytes>
    107a:	4a e0       	ldi	r20, 0x0A	; 10
    107c:	65 ee       	ldi	r22, 0xE5	; 229
    107e:	74 e0       	ldi	r23, 0x04	; 4
    1080:	f6 d1       	rcall	.+1004   	; 0x146e <__itoa_ncheck>
    1082:	85 ee       	ldi	r24, 0xE5	; 229
    1084:	94 e0       	ldi	r25, 0x04	; 4
    1086:	ee dd       	rcall	.-1060   	; 0xc64 <USART0_transmitstring>
    1088:	88 df       	rcall	.-240    	; 0xf9a <Send_FF_to_Display>
    108a:	90 91 8b 04 	lds	r25, 0x048B	; 0x80048b <OneTimeRunFunFlag>
    108e:	9f 5f       	subi	r25, 0xFF	; 255
    1090:	90 93 8b 04 	sts	0x048B, r25	; 0x80048b <OneTimeRunFunFlag>
    1094:	89 e5       	ldi	r24, 0x59	; 89
    1096:	95 e0       	ldi	r25, 0x05	; 5
    1098:	3b de       	rcall	.-906    	; 0xd10 <MatchCommand>
    109a:	8d 30       	cpi	r24, 0x0D	; 13
    109c:	89 f4       	brne	.+34     	; 0x10c0 <ReagentSelected+0xe4>
    109e:	60 91 00 02 	lds	r22, 0x0200	; 0x800200 <__DATA_REGION_ORIGIN__>
    10a2:	70 91 01 02 	lds	r23, 0x0201	; 0x800201 <__DATA_REGION_ORIGIN__+0x1>
    10a6:	ce 01       	movw	r24, r28
    10a8:	d7 dc       	rcall	.-1618   	; 0xa58 <EEPROM_Write2Bytes>
    10aa:	95 e0       	ldi	r25, 0x05	; 5
    10ac:	e0 e0       	ldi	r30, 0x00	; 0
    10ae:	f3 e0       	ldi	r31, 0x03	; 3
    10b0:	a9 e5       	ldi	r26, 0x59	; 89
    10b2:	b5 e0       	ldi	r27, 0x05	; 5
    10b4:	01 90       	ld	r0, Z+
    10b6:	0d 92       	st	X+, r0
    10b8:	9a 95       	dec	r25
    10ba:	e1 f7       	brne	.-8      	; 0x10b4 <ReagentSelected+0xd8>
    10bc:	f0 92 8a 04 	sts	0x048A, r15	; 0x80048a <flag>
    10c0:	89 e5       	ldi	r24, 0x59	; 89
    10c2:	95 e0       	ldi	r25, 0x05	; 5
    10c4:	25 de       	rcall	.-950    	; 0xd10 <MatchCommand>
    10c6:	84 36       	cpi	r24, 0x64	; 100
    10c8:	09 f0       	breq	.+2      	; 0x10cc <ReagentSelected+0xf0>
    10ca:	c5 cf       	rjmp	.-118    	; 0x1056 <ReagentSelected+0x7a>
    10cc:	10 92 8b 04 	sts	0x048B, r1	; 0x80048b <OneTimeRunFunFlag>
    10d0:	80 91 8a 04 	lds	r24, 0x048A	; 0x80048a <flag>
    10d4:	81 30       	cpi	r24, 0x01	; 1
    10d6:	39 f0       	breq	.+14     	; 0x10e6 <ReagentSelected+0x10a>
    10d8:	e9 e5       	ldi	r30, 0x59	; 89
    10da:	f5 e0       	ldi	r31, 0x05	; 5
    10dc:	df 01       	movw	r26, r30
    10de:	2e 2d       	mov	r18, r14
    10e0:	1d 92       	st	X+, r1
    10e2:	2a 95       	dec	r18
    10e4:	e9 f7       	brne	.-6      	; 0x10e0 <ReagentSelected+0x104>
    10e6:	89 e5       	ldi	r24, 0x59	; 89
    10e8:	95 e0       	ldi	r25, 0x05	; 5
    10ea:	12 de       	rcall	.-988    	; 0xd10 <MatchCommand>
    10ec:	84 36       	cpi	r24, 0x64	; 100
    10ee:	09 f0       	breq	.+2      	; 0x10f2 <ReagentSelected+0x116>
    10f0:	85 cf       	rjmp	.-246    	; 0xffc <ReagentSelected+0x20>
    10f2:	10 92 8b 04 	sts	0x048B, r1	; 0x80048b <OneTimeRunFunFlag>
    10f6:	82 e3       	ldi	r24, 0x32	; 50
    10f8:	e9 e5       	ldi	r30, 0x59	; 89
    10fa:	f5 e0       	ldi	r31, 0x05	; 5
    10fc:	df 01       	movw	r26, r30
    10fe:	1d 92       	st	X+, r1
    1100:	8a 95       	dec	r24
    1102:	e9 f7       	brne	.-6      	; 0x10fe <ReagentSelected+0x122>
    1104:	10 92 8a 04 	sts	0x048A, r1	; 0x80048a <flag>
    1108:	df 91       	pop	r29
    110a:	cf 91       	pop	r28
    110c:	1f 91       	pop	r17
    110e:	0f 91       	pop	r16
    1110:	ff 90       	pop	r15
    1112:	ef 90       	pop	r14
    1114:	08 95       	ret

00001116 <StartBlowerTimeSelected>:
    1116:	cf 93       	push	r28
    1118:	df 93       	push	r29
    111a:	c8 2f       	mov	r28, r24
    111c:	d0 e0       	ldi	r29, 0x00	; 0
    111e:	2f ef       	ldi	r18, 0xFF	; 255
    1120:	81 ee       	ldi	r24, 0xE1	; 225
    1122:	94 e0       	ldi	r25, 0x04	; 4
    1124:	21 50       	subi	r18, 0x01	; 1
    1126:	80 40       	sbci	r24, 0x00	; 0
    1128:	90 40       	sbci	r25, 0x00	; 0
    112a:	e1 f7       	brne	.-8      	; 0x1124 <StartBlowerTimeSelected+0xe>
    112c:	00 c0       	rjmp	.+0      	; 0x112e <StartBlowerTimeSelected+0x18>
    112e:	00 00       	nop
    1130:	90 91 8b 04 	lds	r25, 0x048B	; 0x80048b <OneTimeRunFunFlag>
    1134:	91 11       	cpse	r25, r1
    1136:	12 c0       	rjmp	.+36     	; 0x115c <StartBlowerTimeSelected+0x46>
    1138:	83 e7       	ldi	r24, 0x73	; 115
    113a:	94 e0       	ldi	r25, 0x04	; 4
    113c:	93 dd       	rcall	.-1242   	; 0xc64 <USART0_transmitstring>
    113e:	ce 01       	movw	r24, r28
    1140:	9b dc       	rcall	.-1738   	; 0xa78 <EEPROM_Read2Bytes>
    1142:	4a e0       	ldi	r20, 0x0A	; 10
    1144:	65 ee       	ldi	r22, 0xE5	; 229
    1146:	74 e0       	ldi	r23, 0x04	; 4
    1148:	92 d1       	rcall	.+804    	; 0x146e <__itoa_ncheck>
    114a:	85 ee       	ldi	r24, 0xE5	; 229
    114c:	94 e0       	ldi	r25, 0x04	; 4
    114e:	8a dd       	rcall	.-1260   	; 0xc64 <USART0_transmitstring>
    1150:	24 df       	rcall	.-440    	; 0xf9a <Send_FF_to_Display>
    1152:	90 91 8b 04 	lds	r25, 0x048B	; 0x80048b <OneTimeRunFunFlag>
    1156:	9f 5f       	subi	r25, 0xFF	; 255
    1158:	90 93 8b 04 	sts	0x048B, r25	; 0x80048b <OneTimeRunFunFlag>
    115c:	89 e5       	ldi	r24, 0x59	; 89
    115e:	95 e0       	ldi	r25, 0x05	; 5
    1160:	d7 dd       	rcall	.-1106   	; 0xd10 <MatchCommand>
    1162:	89 30       	cpi	r24, 0x09	; 9
    1164:	79 f4       	brne	.+30     	; 0x1184 <StartBlowerTimeSelected+0x6e>
    1166:	60 91 00 02 	lds	r22, 0x0200	; 0x800200 <__DATA_REGION_ORIGIN__>
    116a:	70 91 01 02 	lds	r23, 0x0201	; 0x800201 <__DATA_REGION_ORIGIN__+0x1>
    116e:	ce 01       	movw	r24, r28
    1170:	73 dc       	rcall	.-1818   	; 0xa58 <EEPROM_Write2Bytes>
    1172:	95 e0       	ldi	r25, 0x05	; 5
    1174:	e0 e0       	ldi	r30, 0x00	; 0
    1176:	f3 e0       	ldi	r31, 0x03	; 3
    1178:	a9 e5       	ldi	r26, 0x59	; 89
    117a:	b5 e0       	ldi	r27, 0x05	; 5
    117c:	01 90       	ld	r0, Z+
    117e:	0d 92       	st	X+, r0
    1180:	9a 95       	dec	r25
    1182:	e1 f7       	brne	.-8      	; 0x117c <StartBlowerTimeSelected+0x66>
    1184:	89 e5       	ldi	r24, 0x59	; 89
    1186:	95 e0       	ldi	r25, 0x05	; 5
    1188:	c3 dd       	rcall	.-1146   	; 0xd10 <MatchCommand>
    118a:	84 36       	cpi	r24, 0x64	; 100
    118c:	09 f0       	breq	.+2      	; 0x1190 <StartBlowerTimeSelected+0x7a>
    118e:	c7 cf       	rjmp	.-114    	; 0x111e <StartBlowerTimeSelected+0x8>
    1190:	10 92 8b 04 	sts	0x048B, r1	; 0x80048b <OneTimeRunFunFlag>
    1194:	82 e3       	ldi	r24, 0x32	; 50
    1196:	e9 e5       	ldi	r30, 0x59	; 89
    1198:	f5 e0       	ldi	r31, 0x05	; 5
    119a:	df 01       	movw	r26, r30
    119c:	1d 92       	st	X+, r1
    119e:	8a 95       	dec	r24
    11a0:	e9 f7       	brne	.-6      	; 0x119c <StartBlowerTimeSelected+0x86>
    11a2:	df 91       	pop	r29
    11a4:	cf 91       	pop	r28
    11a6:	08 95       	ret

000011a8 <EndBlowerTimeSelected>:
    11a8:	cf 93       	push	r28
    11aa:	df 93       	push	r29
    11ac:	c8 2f       	mov	r28, r24
    11ae:	d0 e0       	ldi	r29, 0x00	; 0
    11b0:	2f ef       	ldi	r18, 0xFF	; 255
    11b2:	81 ee       	ldi	r24, 0xE1	; 225
    11b4:	94 e0       	ldi	r25, 0x04	; 4
    11b6:	21 50       	subi	r18, 0x01	; 1
    11b8:	80 40       	sbci	r24, 0x00	; 0
    11ba:	90 40       	sbci	r25, 0x00	; 0
    11bc:	e1 f7       	brne	.-8      	; 0x11b6 <EndBlowerTimeSelected+0xe>
    11be:	00 c0       	rjmp	.+0      	; 0x11c0 <EndBlowerTimeSelected+0x18>
    11c0:	00 00       	nop
    11c2:	90 91 8b 04 	lds	r25, 0x048B	; 0x80048b <OneTimeRunFunFlag>
    11c6:	91 11       	cpse	r25, r1
    11c8:	12 c0       	rjmp	.+36     	; 0x11ee <EndBlowerTimeSelected+0x46>
    11ca:	83 e7       	ldi	r24, 0x73	; 115
    11cc:	94 e0       	ldi	r25, 0x04	; 4
    11ce:	4a dd       	rcall	.-1388   	; 0xc64 <USART0_transmitstring>
    11d0:	ce 01       	movw	r24, r28
    11d2:	52 dc       	rcall	.-1884   	; 0xa78 <EEPROM_Read2Bytes>
    11d4:	4a e0       	ldi	r20, 0x0A	; 10
    11d6:	65 ee       	ldi	r22, 0xE5	; 229
    11d8:	74 e0       	ldi	r23, 0x04	; 4
    11da:	49 d1       	rcall	.+658    	; 0x146e <__itoa_ncheck>
    11dc:	85 ee       	ldi	r24, 0xE5	; 229
    11de:	94 e0       	ldi	r25, 0x04	; 4
    11e0:	41 dd       	rcall	.-1406   	; 0xc64 <USART0_transmitstring>
    11e2:	db de       	rcall	.-586    	; 0xf9a <Send_FF_to_Display>
    11e4:	90 91 8b 04 	lds	r25, 0x048B	; 0x80048b <OneTimeRunFunFlag>
    11e8:	9f 5f       	subi	r25, 0xFF	; 255
    11ea:	90 93 8b 04 	sts	0x048B, r25	; 0x80048b <OneTimeRunFunFlag>
    11ee:	89 e5       	ldi	r24, 0x59	; 89
    11f0:	95 e0       	ldi	r25, 0x05	; 5
    11f2:	8e dd       	rcall	.-1252   	; 0xd10 <MatchCommand>
    11f4:	8a 30       	cpi	r24, 0x0A	; 10
    11f6:	79 f4       	brne	.+30     	; 0x1216 <EndBlowerTimeSelected+0x6e>
    11f8:	60 91 00 02 	lds	r22, 0x0200	; 0x800200 <__DATA_REGION_ORIGIN__>
    11fc:	70 91 01 02 	lds	r23, 0x0201	; 0x800201 <__DATA_REGION_ORIGIN__+0x1>
    1200:	ce 01       	movw	r24, r28
    1202:	2a dc       	rcall	.-1964   	; 0xa58 <EEPROM_Write2Bytes>
    1204:	95 e0       	ldi	r25, 0x05	; 5
    1206:	e0 e0       	ldi	r30, 0x00	; 0
    1208:	f3 e0       	ldi	r31, 0x03	; 3
    120a:	a9 e5       	ldi	r26, 0x59	; 89
    120c:	b5 e0       	ldi	r27, 0x05	; 5
    120e:	01 90       	ld	r0, Z+
    1210:	0d 92       	st	X+, r0
    1212:	9a 95       	dec	r25
    1214:	e1 f7       	brne	.-8      	; 0x120e <EndBlowerTimeSelected+0x66>
    1216:	89 e5       	ldi	r24, 0x59	; 89
    1218:	95 e0       	ldi	r25, 0x05	; 5
    121a:	7a dd       	rcall	.-1292   	; 0xd10 <MatchCommand>
    121c:	84 36       	cpi	r24, 0x64	; 100
    121e:	09 f0       	breq	.+2      	; 0x1222 <EndBlowerTimeSelected+0x7a>
    1220:	c7 cf       	rjmp	.-114    	; 0x11b0 <EndBlowerTimeSelected+0x8>
    1222:	10 92 8b 04 	sts	0x048B, r1	; 0x80048b <OneTimeRunFunFlag>
    1226:	82 e3       	ldi	r24, 0x32	; 50
    1228:	e9 e5       	ldi	r30, 0x59	; 89
    122a:	f5 e0       	ldi	r31, 0x05	; 5
    122c:	df 01       	movw	r26, r30
    122e:	1d 92       	st	X+, r1
    1230:	8a 95       	dec	r24
    1232:	e9 f7       	brne	.-6      	; 0x122e <EndBlowerTimeSelected+0x86>
    1234:	df 91       	pop	r29
    1236:	cf 91       	pop	r28
    1238:	08 95       	ret

0000123a <SpinTimeSelected>:
    123a:	cf 93       	push	r28
    123c:	df 93       	push	r29
    123e:	c8 2f       	mov	r28, r24
    1240:	d0 e0       	ldi	r29, 0x00	; 0
    1242:	2f ef       	ldi	r18, 0xFF	; 255
    1244:	81 ee       	ldi	r24, 0xE1	; 225
    1246:	94 e0       	ldi	r25, 0x04	; 4
    1248:	21 50       	subi	r18, 0x01	; 1
    124a:	80 40       	sbci	r24, 0x00	; 0
    124c:	90 40       	sbci	r25, 0x00	; 0
    124e:	e1 f7       	brne	.-8      	; 0x1248 <SpinTimeSelected+0xe>
    1250:	00 c0       	rjmp	.+0      	; 0x1252 <SpinTimeSelected+0x18>
    1252:	00 00       	nop
    1254:	90 91 8b 04 	lds	r25, 0x048B	; 0x80048b <OneTimeRunFunFlag>
    1258:	91 11       	cpse	r25, r1
    125a:	12 c0       	rjmp	.+36     	; 0x1280 <SpinTimeSelected+0x46>
    125c:	83 e7       	ldi	r24, 0x73	; 115
    125e:	94 e0       	ldi	r25, 0x04	; 4
    1260:	01 dd       	rcall	.-1534   	; 0xc64 <USART0_transmitstring>
    1262:	ce 01       	movw	r24, r28
    1264:	09 dc       	rcall	.-2030   	; 0xa78 <EEPROM_Read2Bytes>
    1266:	4a e0       	ldi	r20, 0x0A	; 10
    1268:	65 ee       	ldi	r22, 0xE5	; 229
    126a:	74 e0       	ldi	r23, 0x04	; 4
    126c:	00 d1       	rcall	.+512    	; 0x146e <__itoa_ncheck>
    126e:	85 ee       	ldi	r24, 0xE5	; 229
    1270:	94 e0       	ldi	r25, 0x04	; 4
    1272:	f8 dc       	rcall	.-1552   	; 0xc64 <USART0_transmitstring>
    1274:	92 de       	rcall	.-732    	; 0xf9a <Send_FF_to_Display>
    1276:	90 91 8b 04 	lds	r25, 0x048B	; 0x80048b <OneTimeRunFunFlag>
    127a:	9f 5f       	subi	r25, 0xFF	; 255
    127c:	90 93 8b 04 	sts	0x048B, r25	; 0x80048b <OneTimeRunFunFlag>
    1280:	89 e5       	ldi	r24, 0x59	; 89
    1282:	95 e0       	ldi	r25, 0x05	; 5
    1284:	45 dd       	rcall	.-1398   	; 0xd10 <MatchCommand>
    1286:	83 31       	cpi	r24, 0x13	; 19
    1288:	79 f4       	brne	.+30     	; 0x12a8 <SpinTimeSelected+0x6e>
    128a:	60 91 00 02 	lds	r22, 0x0200	; 0x800200 <__DATA_REGION_ORIGIN__>
    128e:	70 91 01 02 	lds	r23, 0x0201	; 0x800201 <__DATA_REGION_ORIGIN__+0x1>
    1292:	ce 01       	movw	r24, r28
    1294:	e1 db       	rcall	.-2110   	; 0xa58 <EEPROM_Write2Bytes>
    1296:	95 e0       	ldi	r25, 0x05	; 5
    1298:	e0 e0       	ldi	r30, 0x00	; 0
    129a:	f3 e0       	ldi	r31, 0x03	; 3
    129c:	a9 e5       	ldi	r26, 0x59	; 89
    129e:	b5 e0       	ldi	r27, 0x05	; 5
    12a0:	01 90       	ld	r0, Z+
    12a2:	0d 92       	st	X+, r0
    12a4:	9a 95       	dec	r25
    12a6:	e1 f7       	brne	.-8      	; 0x12a0 <SpinTimeSelected+0x66>
    12a8:	89 e5       	ldi	r24, 0x59	; 89
    12aa:	95 e0       	ldi	r25, 0x05	; 5
    12ac:	31 dd       	rcall	.-1438   	; 0xd10 <MatchCommand>
    12ae:	84 36       	cpi	r24, 0x64	; 100
    12b0:	09 f0       	breq	.+2      	; 0x12b4 <SpinTimeSelected+0x7a>
    12b2:	c7 cf       	rjmp	.-114    	; 0x1242 <SpinTimeSelected+0x8>
    12b4:	10 92 8b 04 	sts	0x048B, r1	; 0x80048b <OneTimeRunFunFlag>
    12b8:	82 e3       	ldi	r24, 0x32	; 50
    12ba:	e9 e5       	ldi	r30, 0x59	; 89
    12bc:	f5 e0       	ldi	r31, 0x05	; 5
    12be:	df 01       	movw	r26, r30
    12c0:	1d 92       	st	X+, r1
    12c2:	8a 95       	dec	r24
    12c4:	e9 f7       	brne	.-6      	; 0x12c0 <SpinTimeSelected+0x86>
    12c6:	df 91       	pop	r29
    12c8:	cf 91       	pop	r28
    12ca:	08 95       	ret

000012cc <Send_Text_On_Screen>:
    12cc:	0f 93       	push	r16
    12ce:	1f 93       	push	r17
    12d0:	cf 93       	push	r28
    12d2:	df 93       	push	r29
    12d4:	bc 01       	movw	r22, r24
    12d6:	2f ef       	ldi	r18, 0xFF	; 255
    12d8:	81 ee       	ldi	r24, 0xE1	; 225
    12da:	94 e0       	ldi	r25, 0x04	; 4
    12dc:	21 50       	subi	r18, 0x01	; 1
    12de:	80 40       	sbci	r24, 0x00	; 0
    12e0:	90 40       	sbci	r25, 0x00	; 0
    12e2:	e1 f7       	brne	.-8      	; 0x12dc <Send_Text_On_Screen+0x10>
    12e4:	00 c0       	rjmp	.+0      	; 0x12e6 <Send_Text_On_Screen+0x1a>
    12e6:	00 00       	nop
    12e8:	c5 ee       	ldi	r28, 0xE5	; 229
    12ea:	d4 e0       	ldi	r29, 0x04	; 4
    12ec:	de 01       	movw	r26, r28
    12ee:	0d 90       	ld	r0, X+
    12f0:	00 20       	and	r0, r0
    12f2:	e9 f7       	brne	.-6      	; 0x12ee <Send_Text_On_Screen+0x22>
    12f4:	11 97       	sbiw	r26, 0x01	; 1
    12f6:	9a e0       	ldi	r25, 0x0A	; 10
    12f8:	eb e7       	ldi	r30, 0x7B	; 123
    12fa:	f4 e0       	ldi	r31, 0x04	; 4
    12fc:	01 90       	ld	r0, Z+
    12fe:	0d 92       	st	X+, r0
    1300:	9a 95       	dec	r25
    1302:	e1 f7       	brne	.-8      	; 0x12fc <Send_Text_On_Screen+0x30>
    1304:	fe 01       	movw	r30, r28
    1306:	01 90       	ld	r0, Z+
    1308:	00 20       	and	r0, r0
    130a:	e9 f7       	brne	.-6      	; 0x1306 <Send_Text_On_Screen+0x3a>
    130c:	31 97       	sbiw	r30, 0x01	; 1
    130e:	02 e2       	ldi	r16, 0x22	; 34
    1310:	10 e0       	ldi	r17, 0x00	; 0
    1312:	11 83       	std	Z+1, r17	; 0x01
    1314:	00 83       	st	Z, r16
    1316:	ce 01       	movw	r24, r28
    1318:	68 d0       	rcall	.+208    	; 0x13ea <strcat>
    131a:	fe 01       	movw	r30, r28
    131c:	01 90       	ld	r0, Z+
    131e:	00 20       	and	r0, r0
    1320:	e9 f7       	brne	.-6      	; 0x131c <Send_Text_On_Screen+0x50>
    1322:	31 97       	sbiw	r30, 0x01	; 1
    1324:	11 83       	std	Z+1, r17	; 0x01
    1326:	00 83       	st	Z, r16
    1328:	ce 01       	movw	r24, r28
    132a:	9c dc       	rcall	.-1736   	; 0xc64 <USART0_transmitstring>
    132c:	ce 01       	movw	r24, r28
    132e:	cb dc       	rcall	.-1642   	; 0xcc6 <USART2_transmitstring>
    1330:	34 de       	rcall	.-920    	; 0xf9a <Send_FF_to_Display>
    1332:	82 e3       	ldi	r24, 0x32	; 50
    1334:	fe 01       	movw	r30, r28
    1336:	11 92       	st	Z+, r1
    1338:	8a 95       	dec	r24
    133a:	e9 f7       	brne	.-6      	; 0x1336 <Send_Text_On_Screen+0x6a>
    133c:	df 91       	pop	r29
    133e:	cf 91       	pop	r28
    1340:	1f 91       	pop	r17
    1342:	0f 91       	pop	r16
    1344:	08 95       	ret

00001346 <Blower_ON>:
    1346:	cf 93       	push	r28
    1348:	df 93       	push	r29
    134a:	ec 01       	movw	r28, r24
    134c:	ca dc       	rcall	.-1644   	; 0xce2 <Timer1_init>
    134e:	80 91 88 04 	lds	r24, 0x0488	; 0x800488 <time_in_seconds>
    1352:	90 91 89 04 	lds	r25, 0x0489	; 0x800489 <time_in_seconds+0x1>
    1356:	c8 17       	cp	r28, r24
    1358:	d9 07       	cpc	r29, r25
    135a:	59 f0       	breq	.+22     	; 0x1372 <Blower_ON+0x2c>
    135c:	61 e0       	ldi	r22, 0x01	; 1
    135e:	81 ed       	ldi	r24, 0xD1	; 209
    1360:	94 e0       	ldi	r25, 0x04	; 4
    1362:	48 dc       	rcall	.-1904   	; 0xbf4 <GPIO_WriteToPin>
    1364:	80 91 88 04 	lds	r24, 0x0488	; 0x800488 <time_in_seconds>
    1368:	90 91 89 04 	lds	r25, 0x0489	; 0x800489 <time_in_seconds+0x1>
    136c:	8c 17       	cp	r24, r28
    136e:	9d 07       	cpc	r25, r29
    1370:	a9 f7       	brne	.-22     	; 0x135c <Blower_ON+0x16>
    1372:	60 e0       	ldi	r22, 0x00	; 0
    1374:	81 ed       	ldi	r24, 0xD1	; 209
    1376:	94 e0       	ldi	r25, 0x04	; 4
    1378:	3d dc       	rcall	.-1926   	; 0xbf4 <GPIO_WriteToPin>
    137a:	ef e6       	ldi	r30, 0x6F	; 111
    137c:	f0 e0       	ldi	r31, 0x00	; 0
    137e:	80 81       	ld	r24, Z
    1380:	8e 7f       	andi	r24, 0xFE	; 254
    1382:	80 83       	st	Z, r24
    1384:	10 92 81 00 	sts	0x0081, r1	; 0x800081 <__TEXT_REGION_LENGTH__+0x700081>
    1388:	df 91       	pop	r29
    138a:	cf 91       	pop	r28
    138c:	08 95       	ret

0000138e <Dispense_Reagent>:
    138e:	08 95       	ret

00001390 <Reagent_Wait_Time>:
		_delay_ms(1);
	}
}

void Reagent_Wait_Time(uint16_t wait_Time)
{
    1390:	cf 93       	push	r28
    1392:	df 93       	push	r29
    1394:	ec 01       	movw	r28, r24
	Timer1_init();
    1396:	a5 dc       	rcall	.-1718   	; 0xce2 <Timer1_init>
// 	itoa(time_in_seconds, buffer, 10);
// 	USART2_transmitstring("\ntime =");
// 	USART2_transmitstring(buffer);
// 	memset(buffer, '\0', PACKET_SIZE * sizeof(buffer[0]));	// rec_bufferglob clear
	while( (wait_Time - time_in_seconds) !=0 )
    1398:	80 91 88 04 	lds	r24, 0x0488	; 0x800488 <time_in_seconds>
    139c:	90 91 89 04 	lds	r25, 0x0489	; 0x800489 <time_in_seconds+0x1>
    13a0:	c8 17       	cp	r28, r24
    13a2:	d9 07       	cpc	r29, r25
    13a4:	69 f0       	breq	.+26     	; 0x13c0 <Reagent_Wait_Time+0x30>
    13a6:	8f e1       	ldi	r24, 0x1F	; 31
    13a8:	9e e4       	ldi	r25, 0x4E	; 78
    13aa:	01 97       	sbiw	r24, 0x01	; 1
    13ac:	f1 f7       	brne	.-4      	; 0x13aa <Reagent_Wait_Time+0x1a>
    13ae:	00 c0       	rjmp	.+0      	; 0x13b0 <Reagent_Wait_Time+0x20>
    13b0:	00 00       	nop
    13b2:	80 91 88 04 	lds	r24, 0x0488	; 0x800488 <time_in_seconds>
    13b6:	90 91 89 04 	lds	r25, 0x0489	; 0x800489 <time_in_seconds+0x1>
    13ba:	8c 17       	cp	r24, r28
    13bc:	9d 07       	cpc	r25, r29
    13be:	99 f7       	brne	.-26     	; 0x13a6 <Reagent_Wait_Time+0x16>
 		_delay_ms(5);
	TIMSK1 &= ~(1<<0);	// Timer1 Interrupt disable
    13c0:	ef e6       	ldi	r30, 0x6F	; 111
    13c2:	f0 e0       	ldi	r31, 0x00	; 0
    13c4:	80 81       	ld	r24, Z
    13c6:	8e 7f       	andi	r24, 0xFE	; 254
    13c8:	80 83       	st	Z, r24
	TCCR1B = 0;			// Timer1 OFF
    13ca:	10 92 81 00 	sts	0x0081, r1	; 0x800081 <__TEXT_REGION_LENGTH__+0x700081>
	//USART2_transmitstring("here");
	//time_in_seconds=0;
    13ce:	df 91       	pop	r29
    13d0:	cf 91       	pop	r28
    13d2:	08 95       	ret

000013d4 <__tablejump2__>:
    13d4:	ee 0f       	add	r30, r30
    13d6:	ff 1f       	adc	r31, r31
    13d8:	88 1f       	adc	r24, r24
    13da:	8b bf       	out	0x3b, r24	; 59
    13dc:	07 90       	elpm	r0, Z+
    13de:	f6 91       	elpm	r31, Z
    13e0:	e0 2d       	mov	r30, r0
    13e2:	19 94       	eijmp

000013e4 <strtok>:
    13e4:	46 e8       	ldi	r20, 0x86	; 134
    13e6:	54 e0       	ldi	r21, 0x04	; 4
    13e8:	1b c0       	rjmp	.+54     	; 0x1420 <strtok_r>

000013ea <strcat>:
    13ea:	fb 01       	movw	r30, r22
    13ec:	dc 01       	movw	r26, r24
    13ee:	0d 90       	ld	r0, X+
    13f0:	00 20       	and	r0, r0
    13f2:	e9 f7       	brne	.-6      	; 0x13ee <strcat+0x4>
    13f4:	11 97       	sbiw	r26, 0x01	; 1
    13f6:	01 90       	ld	r0, Z+
    13f8:	0d 92       	st	X+, r0
    13fa:	00 20       	and	r0, r0
    13fc:	e1 f7       	brne	.-8      	; 0x13f6 <strcat+0xc>
    13fe:	08 95       	ret

00001400 <strcmp>:
    1400:	fb 01       	movw	r30, r22
    1402:	dc 01       	movw	r26, r24
    1404:	8d 91       	ld	r24, X+
    1406:	01 90       	ld	r0, Z+
    1408:	80 19       	sub	r24, r0
    140a:	01 10       	cpse	r0, r1
    140c:	d9 f3       	breq	.-10     	; 0x1404 <strcmp+0x4>
    140e:	99 0b       	sbc	r25, r25
    1410:	08 95       	ret

00001412 <strcpy>:
    1412:	fb 01       	movw	r30, r22
    1414:	dc 01       	movw	r26, r24
    1416:	01 90       	ld	r0, Z+
    1418:	0d 92       	st	X+, r0
    141a:	00 20       	and	r0, r0
    141c:	e1 f7       	brne	.-8      	; 0x1416 <strcpy+0x4>
    141e:	08 95       	ret

00001420 <strtok_r>:
    1420:	fa 01       	movw	r30, r20
    1422:	a1 91       	ld	r26, Z+
    1424:	b0 81       	ld	r27, Z
    1426:	00 97       	sbiw	r24, 0x00	; 0
    1428:	19 f4       	brne	.+6      	; 0x1430 <strtok_r+0x10>
    142a:	10 97       	sbiw	r26, 0x00	; 0
    142c:	e1 f0       	breq	.+56     	; 0x1466 <strtok_r+0x46>
    142e:	cd 01       	movw	r24, r26
    1430:	dc 01       	movw	r26, r24
    1432:	cd 01       	movw	r24, r26
    1434:	0d 90       	ld	r0, X+
    1436:	00 20       	and	r0, r0
    1438:	11 f4       	brne	.+4      	; 0x143e <strtok_r+0x1e>
    143a:	c0 01       	movw	r24, r0
    143c:	13 c0       	rjmp	.+38     	; 0x1464 <strtok_r+0x44>
    143e:	fb 01       	movw	r30, r22
    1440:	21 91       	ld	r18, Z+
    1442:	22 23       	and	r18, r18
    1444:	19 f0       	breq	.+6      	; 0x144c <strtok_r+0x2c>
    1446:	20 15       	cp	r18, r0
    1448:	d9 f7       	brne	.-10     	; 0x1440 <strtok_r+0x20>
    144a:	f3 cf       	rjmp	.-26     	; 0x1432 <strtok_r+0x12>
    144c:	fb 01       	movw	r30, r22
    144e:	21 91       	ld	r18, Z+
    1450:	20 15       	cp	r18, r0
    1452:	19 f4       	brne	.+6      	; 0x145a <strtok_r+0x3a>
    1454:	1e 92       	st	-X, r1
    1456:	11 96       	adiw	r26, 0x01	; 1
    1458:	06 c0       	rjmp	.+12     	; 0x1466 <strtok_r+0x46>
    145a:	22 23       	and	r18, r18
    145c:	c1 f7       	brne	.-16     	; 0x144e <strtok_r+0x2e>
    145e:	0d 90       	ld	r0, X+
    1460:	00 20       	and	r0, r0
    1462:	a1 f7       	brne	.-24     	; 0x144c <strtok_r+0x2c>
    1464:	d0 01       	movw	r26, r0
    1466:	fa 01       	movw	r30, r20
    1468:	a1 93       	st	Z+, r26
    146a:	b0 83       	st	Z, r27
    146c:	08 95       	ret

0000146e <__itoa_ncheck>:
    146e:	bb 27       	eor	r27, r27
    1470:	4a 30       	cpi	r20, 0x0A	; 10
    1472:	31 f4       	brne	.+12     	; 0x1480 <__itoa_ncheck+0x12>
    1474:	99 23       	and	r25, r25
    1476:	22 f4       	brpl	.+8      	; 0x1480 <__itoa_ncheck+0x12>
    1478:	bd e2       	ldi	r27, 0x2D	; 45
    147a:	90 95       	com	r25
    147c:	81 95       	neg	r24
    147e:	9f 4f       	sbci	r25, 0xFF	; 255
    1480:	01 c0       	rjmp	.+2      	; 0x1484 <__utoa_common>

00001482 <__utoa_ncheck>:
    1482:	bb 27       	eor	r27, r27

00001484 <__utoa_common>:
    1484:	fb 01       	movw	r30, r22
    1486:	55 27       	eor	r21, r21
    1488:	aa 27       	eor	r26, r26
    148a:	88 0f       	add	r24, r24
    148c:	99 1f       	adc	r25, r25
    148e:	aa 1f       	adc	r26, r26
    1490:	a4 17       	cp	r26, r20
    1492:	10 f0       	brcs	.+4      	; 0x1498 <__utoa_common+0x14>
    1494:	a4 1b       	sub	r26, r20
    1496:	83 95       	inc	r24
    1498:	50 51       	subi	r21, 0x10	; 16
    149a:	b9 f7       	brne	.-18     	; 0x148a <__utoa_common+0x6>
    149c:	a0 5d       	subi	r26, 0xD0	; 208
    149e:	aa 33       	cpi	r26, 0x3A	; 58
    14a0:	08 f0       	brcs	.+2      	; 0x14a4 <__utoa_common+0x20>
    14a2:	a9 5d       	subi	r26, 0xD9	; 217
    14a4:	a1 93       	st	Z+, r26
    14a6:	00 97       	sbiw	r24, 0x00	; 0
    14a8:	79 f7       	brne	.-34     	; 0x1488 <__utoa_common+0x4>
    14aa:	b1 11       	cpse	r27, r1
    14ac:	b1 93       	st	Z+, r27
    14ae:	11 92       	st	Z+, r1
    14b0:	cb 01       	movw	r24, r22
    14b2:	00 c0       	rjmp	.+0      	; 0x14b4 <strrev>

000014b4 <strrev>:
    14b4:	dc 01       	movw	r26, r24
    14b6:	fc 01       	movw	r30, r24
    14b8:	67 2f       	mov	r22, r23
    14ba:	71 91       	ld	r23, Z+
    14bc:	77 23       	and	r23, r23
    14be:	e1 f7       	brne	.-8      	; 0x14b8 <strrev+0x4>
    14c0:	32 97       	sbiw	r30, 0x02	; 2
    14c2:	04 c0       	rjmp	.+8      	; 0x14cc <strrev+0x18>
    14c4:	7c 91       	ld	r23, X
    14c6:	6d 93       	st	X+, r22
    14c8:	70 83       	st	Z, r23
    14ca:	62 91       	ld	r22, -Z
    14cc:	ae 17       	cp	r26, r30
    14ce:	bf 07       	cpc	r27, r31
    14d0:	c8 f3       	brcs	.-14     	; 0x14c4 <strrev+0x10>
    14d2:	08 95       	ret

000014d4 <_exit>:
    14d4:	f8 94       	cli

000014d6 <__stop_program>:
    14d6:	ff cf       	rjmp	.-2      	; 0x14d6 <__stop_program>
